
LightLCD.elf:     file format elf32-avr

Sections:
Idx Name          Size      VMA       LMA       File off  Algn
  0 .text         00001250  00000000  00000000  00000074  2**1
                  CONTENTS, ALLOC, LOAD, READONLY, CODE
  1 .bss          0000021b  00802000  00802000  000012c4  2**0
                  ALLOC
  2 .stab         00000768  00000000  00000000  000012c4  2**2
                  CONTENTS, READONLY, DEBUGGING
  3 .stabstr      000000e7  00000000  00000000  00001a2c  2**0
                  CONTENTS, READONLY, DEBUGGING
  4 .debug_aranges 00000048  00000000  00000000  00001b18  2**3
                  CONTENTS, READONLY, DEBUGGING
  5 .debug_info   00000138  00000000  00000000  00001b60  2**0
                  CONTENTS, READONLY, DEBUGGING
  6 .debug_abbrev 00000026  00000000  00000000  00001c98  2**0
                  CONTENTS, READONLY, DEBUGGING
  7 .debug_line   000000de  00000000  00000000  00001cbe  2**0
                  CONTENTS, READONLY, DEBUGGING
  8 .debug_ranges 00000020  00000000  00000000  00001da0  2**3
                  CONTENTS, READONLY, DEBUGGING

Disassembly of section .text:

00000000 <__vectors>:

	PUBLIC_FUNCTION(ccp_write_io)

#if defined(__GNUC__)

	out     RAMPZ, r1               // Reset bits 23:16 of Z
       0:	fd c0       	rjmp	.+506    	; 0x1fc <__ctors_end>
	movw    r30, r24                // Load addr into Z
       2:	00 00       	nop
	ldi     r18, CCP_IOREG          // Load magic CCP value
       4:	1b c1       	rjmp	.+566    	; 0x23c <__bad_interrupt>
	out     CCP, r18                // Start CCP handshake
       6:	00 00       	nop
	st      Z, r22                  // Write value to I/O register
       8:	19 c1       	rjmp	.+562    	; 0x23c <__bad_interrupt>
	ret                             // Return to caller
       a:	00 00       	nop
       c:	17 c1       	rjmp	.+558    	; 0x23c <__bad_interrupt>
       e:	00 00       	nop
      10:	15 c1       	rjmp	.+554    	; 0x23c <__bad_interrupt>
      12:	00 00       	nop
      14:	13 c1       	rjmp	.+550    	; 0x23c <__bad_interrupt>
      16:	00 00       	nop
      18:	11 c1       	rjmp	.+546    	; 0x23c <__bad_interrupt>
      1a:	00 00       	nop
      1c:	0f c1       	rjmp	.+542    	; 0x23c <__bad_interrupt>
      1e:	00 00       	nop
      20:	0d c1       	rjmp	.+538    	; 0x23c <__bad_interrupt>
      22:	00 00       	nop
      24:	0b c1       	rjmp	.+534    	; 0x23c <__bad_interrupt>
      26:	00 00       	nop
      28:	09 c1       	rjmp	.+530    	; 0x23c <__bad_interrupt>
      2a:	00 00       	nop
      2c:	07 c1       	rjmp	.+526    	; 0x23c <__bad_interrupt>
      2e:	00 00       	nop
      30:	05 c1       	rjmp	.+522    	; 0x23c <__bad_interrupt>
      32:	00 00       	nop
      34:	03 c1       	rjmp	.+518    	; 0x23c <__bad_interrupt>
      36:	00 00       	nop
      38:	01 c1       	rjmp	.+514    	; 0x23c <__bad_interrupt>
      3a:	00 00       	nop
      3c:	ff c0       	rjmp	.+510    	; 0x23c <__bad_interrupt>
      3e:	00 00       	nop
      40:	fd c0       	rjmp	.+506    	; 0x23c <__bad_interrupt>
      42:	00 00       	nop
      44:	fb c0       	rjmp	.+502    	; 0x23c <__bad_interrupt>
      46:	00 00       	nop
      48:	f9 c0       	rjmp	.+498    	; 0x23c <__bad_interrupt>
      4a:	00 00       	nop
      4c:	f7 c0       	rjmp	.+494    	; 0x23c <__bad_interrupt>
      4e:	00 00       	nop
      50:	f5 c0       	rjmp	.+490    	; 0x23c <__bad_interrupt>
      52:	00 00       	nop
      54:	f3 c0       	rjmp	.+486    	; 0x23c <__bad_interrupt>
      56:	00 00       	nop
      58:	f1 c0       	rjmp	.+482    	; 0x23c <__bad_interrupt>
      5a:	00 00       	nop
      5c:	ef c0       	rjmp	.+478    	; 0x23c <__bad_interrupt>
      5e:	00 00       	nop
      60:	ed c0       	rjmp	.+474    	; 0x23c <__bad_interrupt>
      62:	00 00       	nop
      64:	eb c0       	rjmp	.+470    	; 0x23c <__bad_interrupt>
      66:	00 00       	nop
      68:	e9 c0       	rjmp	.+466    	; 0x23c <__bad_interrupt>
      6a:	00 00       	nop
      6c:	e7 c0       	rjmp	.+462    	; 0x23c <__bad_interrupt>
      6e:	00 00       	nop
      70:	e5 c0       	rjmp	.+458    	; 0x23c <__bad_interrupt>
      72:	00 00       	nop
      74:	e3 c0       	rjmp	.+454    	; 0x23c <__bad_interrupt>
      76:	00 00       	nop
      78:	e1 c0       	rjmp	.+450    	; 0x23c <__bad_interrupt>
      7a:	00 00       	nop
      7c:	df c0       	rjmp	.+446    	; 0x23c <__bad_interrupt>
      7e:	00 00       	nop
      80:	dd c0       	rjmp	.+442    	; 0x23c <__bad_interrupt>
      82:	00 00       	nop
      84:	db c0       	rjmp	.+438    	; 0x23c <__bad_interrupt>
      86:	00 00       	nop
      88:	d9 c0       	rjmp	.+434    	; 0x23c <__bad_interrupt>
      8a:	00 00       	nop
      8c:	d7 c0       	rjmp	.+430    	; 0x23c <__bad_interrupt>
      8e:	00 00       	nop
      90:	d5 c0       	rjmp	.+426    	; 0x23c <__bad_interrupt>
      92:	00 00       	nop
      94:	d3 c0       	rjmp	.+422    	; 0x23c <__bad_interrupt>
      96:	00 00       	nop
      98:	d1 c0       	rjmp	.+418    	; 0x23c <__bad_interrupt>
      9a:	00 00       	nop
      9c:	d9 c4       	rjmp	.+2482   	; 0xa50 <__vector_39>
      9e:	00 00       	nop
      a0:	09 c5       	rjmp	.+2578   	; 0xab4 <__vector_40>
      a2:	00 00       	nop
      a4:	39 c5       	rjmp	.+2674   	; 0xb18 <__vector_41>
      a6:	00 00       	nop
      a8:	69 c5       	rjmp	.+2770   	; 0xb7c <__vector_42>
      aa:	00 00       	nop
      ac:	c7 c0       	rjmp	.+398    	; 0x23c <__bad_interrupt>
      ae:	00 00       	nop
      b0:	c5 c0       	rjmp	.+394    	; 0x23c <__bad_interrupt>
      b2:	00 00       	nop
      b4:	c3 c0       	rjmp	.+390    	; 0x23c <__bad_interrupt>
      b6:	00 00       	nop
      b8:	c1 c0       	rjmp	.+386    	; 0x23c <__bad_interrupt>
      ba:	00 00       	nop
      bc:	bf c0       	rjmp	.+382    	; 0x23c <__bad_interrupt>
      be:	00 00       	nop
      c0:	bd c0       	rjmp	.+378    	; 0x23c <__bad_interrupt>
      c2:	00 00       	nop
      c4:	bb c0       	rjmp	.+374    	; 0x23c <__bad_interrupt>
      c6:	00 00       	nop
      c8:	b9 c0       	rjmp	.+370    	; 0x23c <__bad_interrupt>
      ca:	00 00       	nop
      cc:	b7 c0       	rjmp	.+366    	; 0x23c <__bad_interrupt>
      ce:	00 00       	nop
      d0:	b5 c0       	rjmp	.+362    	; 0x23c <__bad_interrupt>
      d2:	00 00       	nop
      d4:	b3 c0       	rjmp	.+358    	; 0x23c <__bad_interrupt>
      d6:	00 00       	nop
      d8:	b1 c0       	rjmp	.+354    	; 0x23c <__bad_interrupt>
      da:	00 00       	nop
      dc:	af c0       	rjmp	.+350    	; 0x23c <__bad_interrupt>
      de:	00 00       	nop
      e0:	ad c0       	rjmp	.+346    	; 0x23c <__bad_interrupt>
      e2:	00 00       	nop
      e4:	ab c0       	rjmp	.+342    	; 0x23c <__bad_interrupt>
      e6:	00 00       	nop
      e8:	a9 c0       	rjmp	.+338    	; 0x23c <__bad_interrupt>
      ea:	00 00       	nop
      ec:	a7 c0       	rjmp	.+334    	; 0x23c <__bad_interrupt>
      ee:	00 00       	nop
      f0:	a5 c0       	rjmp	.+330    	; 0x23c <__bad_interrupt>
      f2:	00 00       	nop
      f4:	a3 c0       	rjmp	.+326    	; 0x23c <__bad_interrupt>
      f6:	00 00       	nop
      f8:	a1 c0       	rjmp	.+322    	; 0x23c <__bad_interrupt>
      fa:	00 00       	nop
      fc:	9f c0       	rjmp	.+318    	; 0x23c <__bad_interrupt>
      fe:	00 00       	nop
     100:	9d c0       	rjmp	.+314    	; 0x23c <__bad_interrupt>
     102:	00 00       	nop
     104:	9b c0       	rjmp	.+310    	; 0x23c <__bad_interrupt>
     106:	00 00       	nop
     108:	99 c0       	rjmp	.+306    	; 0x23c <__bad_interrupt>
     10a:	00 00       	nop
     10c:	97 c0       	rjmp	.+302    	; 0x23c <__bad_interrupt>
     10e:	00 00       	nop
     110:	95 c0       	rjmp	.+298    	; 0x23c <__bad_interrupt>
     112:	00 00       	nop
     114:	93 c0       	rjmp	.+294    	; 0x23c <__bad_interrupt>
     116:	00 00       	nop
     118:	91 c0       	rjmp	.+290    	; 0x23c <__bad_interrupt>
     11a:	00 00       	nop
     11c:	d1 c3       	rjmp	.+1954   	; 0x8c0 <__vector_71>
     11e:	00 00       	nop
     120:	01 c4       	rjmp	.+2050   	; 0x924 <__vector_72>
     122:	00 00       	nop
     124:	31 c4       	rjmp	.+2146   	; 0x988 <__vector_73>
     126:	00 00       	nop
     128:	61 c4       	rjmp	.+2242   	; 0x9ec <__vector_74>
     12a:	00 00       	nop
     12c:	87 c0       	rjmp	.+270    	; 0x23c <__bad_interrupt>
     12e:	00 00       	nop
     130:	85 c0       	rjmp	.+266    	; 0x23c <__bad_interrupt>
     132:	00 00       	nop
     134:	83 c0       	rjmp	.+262    	; 0x23c <__bad_interrupt>
     136:	00 00       	nop
     138:	81 c0       	rjmp	.+258    	; 0x23c <__bad_interrupt>
     13a:	00 00       	nop
     13c:	7f c0       	rjmp	.+254    	; 0x23c <__bad_interrupt>
     13e:	00 00       	nop
     140:	7d c0       	rjmp	.+250    	; 0x23c <__bad_interrupt>
     142:	00 00       	nop
     144:	7b c0       	rjmp	.+246    	; 0x23c <__bad_interrupt>
     146:	00 00       	nop
     148:	79 c0       	rjmp	.+242    	; 0x23c <__bad_interrupt>
     14a:	00 00       	nop
     14c:	77 c0       	rjmp	.+238    	; 0x23c <__bad_interrupt>
     14e:	00 00       	nop
     150:	75 c0       	rjmp	.+234    	; 0x23c <__bad_interrupt>
     152:	00 00       	nop
     154:	73 c0       	rjmp	.+230    	; 0x23c <__bad_interrupt>
     156:	00 00       	nop
     158:	71 c0       	rjmp	.+226    	; 0x23c <__bad_interrupt>
     15a:	00 00       	nop
     15c:	6f c0       	rjmp	.+222    	; 0x23c <__bad_interrupt>
     15e:	00 00       	nop
     160:	6d c0       	rjmp	.+218    	; 0x23c <__bad_interrupt>
     162:	00 00       	nop
     164:	6b c0       	rjmp	.+214    	; 0x23c <__bad_interrupt>
     166:	00 00       	nop
     168:	69 c0       	rjmp	.+210    	; 0x23c <__bad_interrupt>
     16a:	00 00       	nop
     16c:	67 c0       	rjmp	.+206    	; 0x23c <__bad_interrupt>
     16e:	00 00       	nop
     170:	65 c0       	rjmp	.+202    	; 0x23c <__bad_interrupt>
     172:	00 00       	nop
     174:	63 c0       	rjmp	.+198    	; 0x23c <__bad_interrupt>
     176:	00 00       	nop
     178:	61 c0       	rjmp	.+194    	; 0x23c <__bad_interrupt>
     17a:	00 00       	nop
     17c:	5f c0       	rjmp	.+190    	; 0x23c <__bad_interrupt>
     17e:	00 00       	nop
     180:	5d c0       	rjmp	.+186    	; 0x23c <__bad_interrupt>
     182:	00 00       	nop
     184:	5b c0       	rjmp	.+182    	; 0x23c <__bad_interrupt>
     186:	00 00       	nop
     188:	59 c0       	rjmp	.+178    	; 0x23c <__bad_interrupt>
     18a:	00 00       	nop
     18c:	57 c0       	rjmp	.+174    	; 0x23c <__bad_interrupt>
     18e:	00 00       	nop
     190:	55 c0       	rjmp	.+170    	; 0x23c <__bad_interrupt>
     192:	00 00       	nop
     194:	53 c0       	rjmp	.+166    	; 0x23c <__bad_interrupt>
     196:	00 00       	nop
     198:	51 c0       	rjmp	.+162    	; 0x23c <__bad_interrupt>
     19a:	00 00       	nop
     19c:	4f c0       	rjmp	.+158    	; 0x23c <__bad_interrupt>
     19e:	00 00       	nop
     1a0:	4d c0       	rjmp	.+154    	; 0x23c <__bad_interrupt>
     1a2:	00 00       	nop
     1a4:	4b c0       	rjmp	.+150    	; 0x23c <__bad_interrupt>
     1a6:	00 00       	nop
     1a8:	49 c0       	rjmp	.+146    	; 0x23c <__bad_interrupt>
     1aa:	00 00       	nop
     1ac:	47 c0       	rjmp	.+142    	; 0x23c <__bad_interrupt>
     1ae:	00 00       	nop
     1b0:	45 c0       	rjmp	.+138    	; 0x23c <__bad_interrupt>
     1b2:	00 00       	nop
     1b4:	43 c0       	rjmp	.+134    	; 0x23c <__bad_interrupt>
     1b6:	00 00       	nop
     1b8:	41 c0       	rjmp	.+130    	; 0x23c <__bad_interrupt>
     1ba:	00 00       	nop
     1bc:	3f c0       	rjmp	.+126    	; 0x23c <__bad_interrupt>
     1be:	00 00       	nop
     1c0:	3d c0       	rjmp	.+122    	; 0x23c <__bad_interrupt>
     1c2:	00 00       	nop
     1c4:	3b c0       	rjmp	.+118    	; 0x23c <__bad_interrupt>
     1c6:	00 00       	nop
     1c8:	39 c0       	rjmp	.+114    	; 0x23c <__bad_interrupt>
     1ca:	00 00       	nop
     1cc:	37 c0       	rjmp	.+110    	; 0x23c <__bad_interrupt>
     1ce:	00 00       	nop
     1d0:	35 c0       	rjmp	.+106    	; 0x23c <__bad_interrupt>
     1d2:	00 00       	nop
     1d4:	33 c0       	rjmp	.+102    	; 0x23c <__bad_interrupt>
     1d6:	00 00       	nop
     1d8:	31 c0       	rjmp	.+98     	; 0x23c <__bad_interrupt>
     1da:	00 00       	nop
     1dc:	2f c0       	rjmp	.+94     	; 0x23c <__bad_interrupt>
     1de:	00 00       	nop
     1e0:	2d c0       	rjmp	.+90     	; 0x23c <__bad_interrupt>
     1e2:	00 00       	nop
     1e4:	2b c0       	rjmp	.+86     	; 0x23c <__bad_interrupt>
     1e6:	00 00       	nop
     1e8:	29 c0       	rjmp	.+82     	; 0x23c <__bad_interrupt>
     1ea:	00 00       	nop
     1ec:	27 c0       	rjmp	.+78     	; 0x23c <__bad_interrupt>
     1ee:	00 00       	nop
     1f0:	25 c0       	rjmp	.+74     	; 0x23c <__bad_interrupt>
     1f2:	00 00       	nop
     1f4:	23 c0       	rjmp	.+70     	; 0x23c <__bad_interrupt>
     1f6:	00 00       	nop
     1f8:	21 c0       	rjmp	.+66     	; 0x23c <__bad_interrupt>
	...

000001fc <__ctors_end>:
     1fc:	11 24       	eor	r1, r1
     1fe:	1f be       	out	0x3f, r1	; 63
     200:	cf ef       	ldi	r28, 0xFF	; 255
     202:	df e5       	ldi	r29, 0x5F	; 95
     204:	de bf       	out	0x3e, r29	; 62
     206:	cd bf       	out	0x3d, r28	; 61
     208:	00 e0       	ldi	r16, 0x00	; 0
     20a:	0c bf       	out	0x3c, r16	; 60

0000020c <__do_copy_data>:
     20c:	10 e2       	ldi	r17, 0x20	; 32
     20e:	a0 e0       	ldi	r26, 0x00	; 0
     210:	b0 e2       	ldi	r27, 0x20	; 32
     212:	e0 e5       	ldi	r30, 0x50	; 80
     214:	f2 e1       	ldi	r31, 0x12	; 18
     216:	00 e0       	ldi	r16, 0x00	; 0
     218:	0b bf       	out	0x3b, r16	; 59
     21a:	02 c0       	rjmp	.+4      	; 0x220 <__do_copy_data+0x14>
     21c:	07 90       	elpm	r0, Z+
     21e:	0d 92       	st	X+, r0
     220:	a0 30       	cpi	r26, 0x00	; 0
     222:	b1 07       	cpc	r27, r17
     224:	d9 f7       	brne	.-10     	; 0x21c <__do_copy_data+0x10>

00000226 <__do_clear_bss>:
     226:	12 e2       	ldi	r17, 0x22	; 34
     228:	a0 e0       	ldi	r26, 0x00	; 0
     22a:	b0 e2       	ldi	r27, 0x20	; 32
     22c:	01 c0       	rjmp	.+2      	; 0x230 <.do_clear_bss_start>

0000022e <.do_clear_bss_loop>:
     22e:	1d 92       	st	X+, r1

00000230 <.do_clear_bss_start>:
     230:	ab 31       	cpi	r26, 0x1B	; 27
     232:	b1 07       	cpc	r27, r17
     234:	e1 f7       	brne	.-8      	; 0x22e <.do_clear_bss_loop>
     236:	8e d7       	rcall	.+3868   	; 0x1154 <main>
     238:	0c 94 26 09 	jmp	0x124c	; 0x124c <_exit>

0000023c <__bad_interrupt>:
     23c:	e1 ce       	rjmp	.-574    	; 0x0 <__vectors>

0000023e <ioport_set_value>:
     23e:	e8 2f       	mov	r30, r24
     240:	e6 95       	lsr	r30
     242:	e6 95       	lsr	r30
     244:	e6 95       	lsr	r30
     246:	f0 e0       	ldi	r31, 0x00	; 0
     248:	f0 96       	adiw	r30, 0x30	; 48
     24a:	95 e0       	ldi	r25, 0x05	; 5
     24c:	ee 0f       	add	r30, r30
     24e:	ff 1f       	adc	r31, r31
     250:	9a 95       	dec	r25
     252:	e1 f7       	brne	.-8      	; 0x24c <ioport_set_value+0xe>
     254:	90 e0       	ldi	r25, 0x00	; 0
     256:	66 23       	and	r22, r22
     258:	59 f0       	breq	.+22     	; 0x270 <ioport_set_value+0x32>
     25a:	87 70       	andi	r24, 0x07	; 7
     25c:	90 70       	andi	r25, 0x00	; 0
     25e:	21 e0       	ldi	r18, 0x01	; 1
     260:	30 e0       	ldi	r19, 0x00	; 0
     262:	02 c0       	rjmp	.+4      	; 0x268 <ioport_set_value+0x2a>
     264:	22 0f       	add	r18, r18
     266:	33 1f       	adc	r19, r19
     268:	8a 95       	dec	r24
     26a:	e2 f7       	brpl	.-8      	; 0x264 <ioport_set_value+0x26>
     26c:	25 83       	std	Z+5, r18	; 0x05
     26e:	08 95       	ret
     270:	87 70       	andi	r24, 0x07	; 7
     272:	90 70       	andi	r25, 0x00	; 0
     274:	21 e0       	ldi	r18, 0x01	; 1
     276:	30 e0       	ldi	r19, 0x00	; 0
     278:	02 c0       	rjmp	.+4      	; 0x27e <ioport_set_value+0x40>
     27a:	22 0f       	add	r18, r18
     27c:	33 1f       	adc	r19, r19
     27e:	8a 95       	dec	r24
     280:	e2 f7       	brpl	.-8      	; 0x27a <ioport_set_value+0x3c>
     282:	26 83       	std	Z+6, r18	; 0x06
     284:	08 95       	ret

00000286 <st7565r_write_command>:
     286:	1f 93       	push	r17
     288:	18 2f       	mov	r17, r24
     28a:	8b e2       	ldi	r24, 0x2B	; 43
     28c:	60 e0       	ldi	r22, 0x00	; 0
     28e:	d7 df       	rcall	.-82     	; 0x23e <ioport_set_value>
     290:	88 e1       	ldi	r24, 0x18	; 24
     292:	60 e0       	ldi	r22, 0x00	; 0
     294:	d4 df       	rcall	.-88     	; 0x23e <ioport_set_value>
     296:	80 91 a1 09 	lds	r24, 0x09A1
     29a:	85 ff       	sbrs	r24, 5
     29c:	fc cf       	rjmp	.-8      	; 0x296 <st7565r_write_command+0x10>
     29e:	10 93 a0 09 	sts	0x09A0, r17
     2a2:	80 91 a1 09 	lds	r24, 0x09A1
     2a6:	86 ff       	sbrs	r24, 6
     2a8:	fc cf       	rjmp	.-8      	; 0x2a2 <st7565r_write_command+0x1c>
     2aa:	80 e4       	ldi	r24, 0x40	; 64
     2ac:	e0 ea       	ldi	r30, 0xA0	; 160
     2ae:	f9 e0       	ldi	r31, 0x09	; 9
     2b0:	81 83       	std	Z+1, r24	; 0x01
     2b2:	80 91 a0 09 	lds	r24, 0x09A0
     2b6:	8b e2       	ldi	r24, 0x2B	; 43
     2b8:	61 e0       	ldi	r22, 0x01	; 1
     2ba:	c1 df       	rcall	.-126    	; 0x23e <ioport_set_value>
     2bc:	1f 91       	pop	r17
     2be:	08 95       	ret

000002c0 <st7565r_init>:
     2c0:	cf 92       	push	r12
     2c2:	df 92       	push	r13
     2c4:	ef 92       	push	r14
     2c6:	ff 92       	push	r15
     2c8:	0f 93       	push	r16
     2ca:	1f 93       	push	r17
     2cc:	df 93       	push	r29
     2ce:	cf 93       	push	r28
     2d0:	0f 92       	push	r0
     2d2:	0f 92       	push	r0
     2d4:	cd b7       	in	r28, 0x3d	; 61
     2d6:	de b7       	in	r29, 0x3e	; 62
     2d8:	82 e0       	ldi	r24, 0x02	; 2
     2da:	89 83       	std	Y+1, r24	; 0x01
     2dc:	83 e0       	ldi	r24, 0x03	; 3
     2de:	60 e0       	ldi	r22, 0x00	; 0
     2e0:	ae df       	rcall	.-164    	; 0x23e <ioport_set_value>
     2e2:	89 81       	ldd	r24, Y+1	; 0x01
     2e4:	98 2f       	mov	r25, r24
     2e6:	91 50       	subi	r25, 0x01	; 1
     2e8:	99 83       	std	Y+1, r25	; 0x01
     2ea:	88 23       	and	r24, r24
     2ec:	d1 f7       	brne	.-12     	; 0x2e2 <st7565r_init+0x22>
     2ee:	82 e0       	ldi	r24, 0x02	; 2
     2f0:	89 83       	std	Y+1, r24	; 0x01
     2f2:	83 e0       	ldi	r24, 0x03	; 3
     2f4:	61 e0       	ldi	r22, 0x01	; 1
     2f6:	a3 df       	rcall	.-186    	; 0x23e <ioport_set_value>
     2f8:	89 81       	ldd	r24, Y+1	; 0x01
     2fa:	98 2f       	mov	r25, r24
     2fc:	91 50       	subi	r25, 0x01	; 1
     2fe:	99 83       	std	Y+1, r25	; 0x01
     300:	88 23       	and	r24, r24
     302:	d1 f7       	brne	.-12     	; 0x2f8 <st7565r_init+0x38>
     304:	8b e2       	ldi	r24, 0x2B	; 43
     306:	8a 83       	std	Y+2, r24	; 0x02
     308:	80 ea       	ldi	r24, 0xA0	; 160
     30a:	99 e0       	ldi	r25, 0x09	; 9
     30c:	da d1       	rcall	.+948    	; 0x6c2 <usart_spi_init>
     30e:	80 ea       	ldi	r24, 0xA0	; 160
     310:	99 e0       	ldi	r25, 0x09	; 9
     312:	be 01       	movw	r22, r28
     314:	6e 5f       	subi	r22, 0xFE	; 254
     316:	7f 4f       	sbci	r23, 0xFF	; 255
     318:	43 e0       	ldi	r20, 0x03	; 3
     31a:	00 e4       	ldi	r16, 0x40	; 64
     31c:	12 e4       	ldi	r17, 0x42	; 66
     31e:	2f e0       	ldi	r18, 0x0F	; 15
     320:	30 e0       	ldi	r19, 0x00	; 0
     322:	cc 24       	eor	r12, r12
     324:	dd 24       	eor	r13, r13
     326:	76 01       	movw	r14, r12
     328:	fa d1       	rcall	.+1012   	; 0x71e <usart_spi_setup_device>
     32a:	88 e1       	ldi	r24, 0x18	; 24
     32c:	60 e0       	ldi	r22, 0x00	; 0
     32e:	87 df       	rcall	.-242    	; 0x23e <ioport_set_value>
     330:	80 ea       	ldi	r24, 0xA0	; 160
     332:	a9 df       	rcall	.-174    	; 0x286 <st7565r_write_command>
     334:	86 ea       	ldi	r24, 0xA6	; 166
     336:	a7 df       	rcall	.-178    	; 0x286 <st7565r_write_command>
     338:	88 ec       	ldi	r24, 0xC8	; 200
     33a:	a5 df       	rcall	.-182    	; 0x286 <st7565r_write_command>
     33c:	82 ea       	ldi	r24, 0xA2	; 162
     33e:	a3 df       	rcall	.-186    	; 0x286 <st7565r_write_command>
     340:	8f e2       	ldi	r24, 0x2F	; 47
     342:	a1 df       	rcall	.-190    	; 0x286 <st7565r_write_command>
     344:	88 ef       	ldi	r24, 0xF8	; 248
     346:	9f df       	rcall	.-194    	; 0x286 <st7565r_write_command>
     348:	80 e0       	ldi	r24, 0x00	; 0
     34a:	9d df       	rcall	.-198    	; 0x286 <st7565r_write_command>
     34c:	81 e2       	ldi	r24, 0x21	; 33
     34e:	9b df       	rcall	.-202    	; 0x286 <st7565r_write_command>
     350:	81 e8       	ldi	r24, 0x81	; 129
     352:	99 df       	rcall	.-206    	; 0x286 <st7565r_write_command>
     354:	87 e1       	ldi	r24, 0x17	; 23
     356:	97 df       	rcall	.-210    	; 0x286 <st7565r_write_command>
     358:	8f ea       	ldi	r24, 0xAF	; 175
     35a:	95 df       	rcall	.-214    	; 0x286 <st7565r_write_command>
     35c:	0f 90       	pop	r0
     35e:	0f 90       	pop	r0
     360:	cf 91       	pop	r28
     362:	df 91       	pop	r29
     364:	1f 91       	pop	r17
     366:	0f 91       	pop	r16
     368:	ff 90       	pop	r15
     36a:	ef 90       	pop	r14
     36c:	df 90       	pop	r13
     36e:	cf 90       	pop	r12
     370:	08 95       	ret

00000372 <sysclk_init>:
     372:	8f ef       	ldi	r24, 0xFF	; 255
     374:	80 93 70 00 	sts	0x0070, r24
     378:	80 93 71 00 	sts	0x0071, r24
     37c:	80 93 72 00 	sts	0x0072, r24
     380:	80 93 73 00 	sts	0x0073, r24
     384:	80 93 74 00 	sts	0x0074, r24
     388:	80 93 75 00 	sts	0x0075, r24
     38c:	80 93 76 00 	sts	0x0076, r24
     390:	08 95       	ret

00000392 <sysclk_enable_module>:
     392:	fc 01       	movw	r30, r24
     394:	9f b7       	in	r25, 0x3f	; 63
     396:	f8 94       	cli
     398:	e0 59       	subi	r30, 0x90	; 144
     39a:	ff 4f       	sbci	r31, 0xFF	; 255
     39c:	60 95       	com	r22
     39e:	80 81       	ld	r24, Z
     3a0:	86 23       	and	r24, r22
     3a2:	80 83       	st	Z, r24
     3a4:	9f bf       	out	0x3f, r25	; 63
     3a6:	08 95       	ret

000003a8 <sysclk_disable_module>:
     3a8:	fc 01       	movw	r30, r24
     3aa:	9f b7       	in	r25, 0x3f	; 63
     3ac:	f8 94       	cli
     3ae:	e0 59       	subi	r30, 0x90	; 144
     3b0:	ff 4f       	sbci	r31, 0xFF	; 255
     3b2:	80 81       	ld	r24, Z
     3b4:	86 2b       	or	r24, r22
     3b6:	80 83       	st	Z, r24
     3b8:	9f bf       	out	0x3f, r25	; 63
     3ba:	08 95       	ret

000003bc <ioport_set_value>:
     3bc:	e8 2f       	mov	r30, r24
     3be:	e6 95       	lsr	r30
     3c0:	e6 95       	lsr	r30
     3c2:	e6 95       	lsr	r30
     3c4:	f0 e0       	ldi	r31, 0x00	; 0
     3c6:	f0 96       	adiw	r30, 0x30	; 48
     3c8:	95 e0       	ldi	r25, 0x05	; 5
     3ca:	ee 0f       	add	r30, r30
     3cc:	ff 1f       	adc	r31, r31
     3ce:	9a 95       	dec	r25
     3d0:	e1 f7       	brne	.-8      	; 0x3ca <ioport_set_value+0xe>
     3d2:	90 e0       	ldi	r25, 0x00	; 0
     3d4:	66 23       	and	r22, r22
     3d6:	59 f0       	breq	.+22     	; 0x3ee <ioport_set_value+0x32>
     3d8:	87 70       	andi	r24, 0x07	; 7
     3da:	90 70       	andi	r25, 0x00	; 0
     3dc:	21 e0       	ldi	r18, 0x01	; 1
     3de:	30 e0       	ldi	r19, 0x00	; 0
     3e0:	02 c0       	rjmp	.+4      	; 0x3e6 <ioport_set_value+0x2a>
     3e2:	22 0f       	add	r18, r18
     3e4:	33 1f       	adc	r19, r19
     3e6:	8a 95       	dec	r24
     3e8:	e2 f7       	brpl	.-8      	; 0x3e2 <ioport_set_value+0x26>
     3ea:	25 83       	std	Z+5, r18	; 0x05
     3ec:	08 95       	ret
     3ee:	87 70       	andi	r24, 0x07	; 7
     3f0:	90 70       	andi	r25, 0x00	; 0
     3f2:	21 e0       	ldi	r18, 0x01	; 1
     3f4:	30 e0       	ldi	r19, 0x00	; 0
     3f6:	02 c0       	rjmp	.+4      	; 0x3fc <ioport_set_value+0x40>
     3f8:	22 0f       	add	r18, r18
     3fa:	33 1f       	adc	r19, r19
     3fc:	8a 95       	dec	r24
     3fe:	e2 f7       	brpl	.-8      	; 0x3f8 <ioport_set_value+0x3c>
     400:	26 83       	std	Z+6, r18	; 0x06
     402:	08 95       	ret

00000404 <st7565r_write_command>:
     404:	1f 93       	push	r17
     406:	18 2f       	mov	r17, r24
     408:	8b e2       	ldi	r24, 0x2B	; 43
     40a:	60 e0       	ldi	r22, 0x00	; 0
     40c:	d7 df       	rcall	.-82     	; 0x3bc <ioport_set_value>
     40e:	88 e1       	ldi	r24, 0x18	; 24
     410:	60 e0       	ldi	r22, 0x00	; 0
     412:	d4 df       	rcall	.-88     	; 0x3bc <ioport_set_value>
     414:	80 91 a1 09 	lds	r24, 0x09A1
     418:	85 ff       	sbrs	r24, 5
     41a:	fc cf       	rjmp	.-8      	; 0x414 <st7565r_write_command+0x10>
     41c:	10 93 a0 09 	sts	0x09A0, r17
     420:	80 91 a1 09 	lds	r24, 0x09A1
     424:	86 ff       	sbrs	r24, 6
     426:	fc cf       	rjmp	.-8      	; 0x420 <st7565r_write_command+0x1c>
     428:	80 e4       	ldi	r24, 0x40	; 64
     42a:	e0 ea       	ldi	r30, 0xA0	; 160
     42c:	f9 e0       	ldi	r31, 0x09	; 9
     42e:	81 83       	std	Z+1, r24	; 0x01
     430:	80 91 a0 09 	lds	r24, 0x09A0
     434:	8b e2       	ldi	r24, 0x2B	; 43
     436:	61 e0       	ldi	r22, 0x01	; 1
     438:	c1 df       	rcall	.-126    	; 0x3bc <ioport_set_value>
     43a:	1f 91       	pop	r17
     43c:	08 95       	ret

0000043e <st7565r_write_data>:
     43e:	1f 93       	push	r17
     440:	18 2f       	mov	r17, r24
     442:	8b e2       	ldi	r24, 0x2B	; 43
     444:	60 e0       	ldi	r22, 0x00	; 0
     446:	ba df       	rcall	.-140    	; 0x3bc <ioport_set_value>
     448:	88 e1       	ldi	r24, 0x18	; 24
     44a:	61 e0       	ldi	r22, 0x01	; 1
     44c:	b7 df       	rcall	.-146    	; 0x3bc <ioport_set_value>
     44e:	80 91 a1 09 	lds	r24, 0x09A1
     452:	85 ff       	sbrs	r24, 5
     454:	fc cf       	rjmp	.-8      	; 0x44e <st7565r_write_data+0x10>
     456:	10 93 a0 09 	sts	0x09A0, r17
     45a:	80 91 a1 09 	lds	r24, 0x09A1
     45e:	86 ff       	sbrs	r24, 6
     460:	fc cf       	rjmp	.-8      	; 0x45a <st7565r_write_data+0x1c>
     462:	80 e4       	ldi	r24, 0x40	; 64
     464:	e0 ea       	ldi	r30, 0xA0	; 160
     466:	f9 e0       	ldi	r31, 0x09	; 9
     468:	81 83       	std	Z+1, r24	; 0x01
     46a:	80 91 a0 09 	lds	r24, 0x09A0
     46e:	88 e1       	ldi	r24, 0x18	; 24
     470:	60 e0       	ldi	r22, 0x00	; 0
     472:	a4 df       	rcall	.-184    	; 0x3bc <ioport_set_value>
     474:	8b e2       	ldi	r24, 0x2B	; 43
     476:	61 e0       	ldi	r22, 0x01	; 1
     478:	a1 df       	rcall	.-190    	; 0x3bc <ioport_set_value>
     47a:	1f 91       	pop	r17
     47c:	08 95       	ret

0000047e <st7565r_set_page_address>:
     47e:	8f 70       	andi	r24, 0x0F	; 15
     480:	80 6b       	ori	r24, 0xB0	; 176
     482:	c0 cf       	rjmp	.-128    	; 0x404 <st7565r_write_command>

00000484 <st7565r_set_column_address>:
     484:	1f 93       	push	r17
     486:	18 2f       	mov	r17, r24
     488:	8f 77       	andi	r24, 0x7F	; 127
     48a:	82 95       	swap	r24
     48c:	8f 70       	andi	r24, 0x0F	; 15
     48e:	80 61       	ori	r24, 0x10	; 16
     490:	b9 df       	rcall	.-142    	; 0x404 <st7565r_write_command>
     492:	81 2f       	mov	r24, r17
     494:	8f 70       	andi	r24, 0x0F	; 15
     496:	b6 df       	rcall	.-148    	; 0x404 <st7565r_write_command>
     498:	1f 91       	pop	r17
     49a:	08 95       	ret

0000049c <gfx_mono_st7565r_put_byte>:
     49c:	ff 92       	push	r15
     49e:	0f 93       	push	r16
     4a0:	1f 93       	push	r17
     4a2:	f8 2e       	mov	r15, r24
     4a4:	06 2f       	mov	r16, r22
     4a6:	14 2f       	mov	r17, r20
     4a8:	6c d0       	rcall	.+216    	; 0x582 <gfx_mono_framebuffer_put_byte>
     4aa:	8f 2d       	mov	r24, r15
     4ac:	e8 df       	rcall	.-48     	; 0x47e <st7565r_set_page_address>
     4ae:	80 2f       	mov	r24, r16
     4b0:	e9 df       	rcall	.-46     	; 0x484 <st7565r_set_column_address>
     4b2:	81 2f       	mov	r24, r17
     4b4:	c4 df       	rcall	.-120    	; 0x43e <st7565r_write_data>
     4b6:	1f 91       	pop	r17
     4b8:	0f 91       	pop	r16
     4ba:	ff 90       	pop	r15
     4bc:	08 95       	ret

000004be <gfx_mono_st7565r_init>:
     4be:	0f 93       	push	r16
     4c0:	1f 93       	push	r17
     4c2:	80 e0       	ldi	r24, 0x00	; 0
     4c4:	90 e2       	ldi	r25, 0x20	; 32
     4c6:	58 d0       	rcall	.+176    	; 0x578 <gfx_mono_set_framebuffer>
     4c8:	fb de       	rcall	.-522    	; 0x2c0 <st7565r_init>
     4ca:	80 e4       	ldi	r24, 0x40	; 64
     4cc:	9b df       	rcall	.-202    	; 0x404 <st7565r_write_command>
     4ce:	10 e0       	ldi	r17, 0x00	; 0
     4d0:	0a c0       	rjmp	.+20     	; 0x4e6 <gfx_mono_st7565r_init+0x28>
     4d2:	81 2f       	mov	r24, r17
     4d4:	60 2f       	mov	r22, r16
     4d6:	40 e0       	ldi	r20, 0x00	; 0
     4d8:	e1 df       	rcall	.-62     	; 0x49c <gfx_mono_st7565r_put_byte>
     4da:	0f 5f       	subi	r16, 0xFF	; 255
     4dc:	00 38       	cpi	r16, 0x80	; 128
     4de:	c9 f7       	brne	.-14     	; 0x4d2 <gfx_mono_st7565r_init+0x14>
     4e0:	1f 5f       	subi	r17, 0xFF	; 255
     4e2:	14 30       	cpi	r17, 0x04	; 4
     4e4:	11 f0       	breq	.+4      	; 0x4ea <gfx_mono_st7565r_init+0x2c>
     4e6:	00 e0       	ldi	r16, 0x00	; 0
     4e8:	f4 cf       	rjmp	.-24     	; 0x4d2 <gfx_mono_st7565r_init+0x14>
     4ea:	1f 91       	pop	r17
     4ec:	0f 91       	pop	r16
     4ee:	08 95       	ret

000004f0 <gfx_mono_st7565r_draw_pixel>:
     4f0:	ff 92       	push	r15
     4f2:	0f 93       	push	r16
     4f4:	1f 93       	push	r17
     4f6:	df 93       	push	r29
     4f8:	cf 93       	push	r28
     4fa:	0f 92       	push	r0
     4fc:	cd b7       	in	r28, 0x3d	; 61
     4fe:	de b7       	in	r29, 0x3e	; 62
     500:	18 2f       	mov	r17, r24
     502:	87 fd       	sbrc	r24, 7
     504:	30 c0       	rjmp	.+96     	; 0x566 <gfx_mono_st7565r_draw_pixel+0x76>
     506:	60 32       	cpi	r22, 0x20	; 32
     508:	70 f5       	brcc	.+92     	; 0x566 <gfx_mono_st7565r_draw_pixel+0x76>
     50a:	06 2f       	mov	r16, r22
     50c:	06 95       	lsr	r16
     50e:	06 95       	lsr	r16
     510:	06 95       	lsr	r16
     512:	20 2f       	mov	r18, r16
     514:	30 e0       	ldi	r19, 0x00	; 0
     516:	30 95       	com	r19
     518:	21 95       	neg	r18
     51a:	3f 4f       	sbci	r19, 0xFF	; 255
     51c:	53 e0       	ldi	r21, 0x03	; 3
     51e:	22 0f       	add	r18, r18
     520:	33 1f       	adc	r19, r19
     522:	5a 95       	dec	r21
     524:	e1 f7       	brne	.-8      	; 0x51e <gfx_mono_st7565r_draw_pixel+0x2e>
     526:	26 0f       	add	r18, r22
     528:	31 1d       	adc	r19, r1
     52a:	e1 e0       	ldi	r30, 0x01	; 1
     52c:	f0 e0       	ldi	r31, 0x00	; 0
     52e:	02 c0       	rjmp	.+4      	; 0x534 <gfx_mono_st7565r_draw_pixel+0x44>
     530:	ee 0f       	add	r30, r30
     532:	ff 1f       	adc	r31, r31
     534:	2a 95       	dec	r18
     536:	e2 f7       	brpl	.-8      	; 0x530 <gfx_mono_st7565r_draw_pixel+0x40>
     538:	fe 2e       	mov	r15, r30
     53a:	80 2f       	mov	r24, r16
     53c:	61 2f       	mov	r22, r17
     53e:	49 83       	std	Y+1, r20	; 0x01
     540:	30 d0       	rcall	.+96     	; 0x5a2 <gfx_mono_framebuffer_get_byte>
     542:	48 2f       	mov	r20, r24
     544:	99 81       	ldd	r25, Y+1	; 0x01
     546:	91 30       	cpi	r25, 0x01	; 1
     548:	29 f0       	breq	.+10     	; 0x554 <gfx_mono_st7565r_draw_pixel+0x64>
     54a:	91 30       	cpi	r25, 0x01	; 1
     54c:	28 f0       	brcs	.+10     	; 0x558 <gfx_mono_st7565r_draw_pixel+0x68>
     54e:	92 30       	cpi	r25, 0x02	; 2
     550:	39 f4       	brne	.+14     	; 0x560 <gfx_mono_st7565r_draw_pixel+0x70>
     552:	05 c0       	rjmp	.+10     	; 0x55e <gfx_mono_st7565r_draw_pixel+0x6e>
     554:	4f 29       	or	r20, r15
     556:	04 c0       	rjmp	.+8      	; 0x560 <gfx_mono_st7565r_draw_pixel+0x70>
     558:	f0 94       	com	r15
     55a:	4f 21       	and	r20, r15
     55c:	01 c0       	rjmp	.+2      	; 0x560 <gfx_mono_st7565r_draw_pixel+0x70>
     55e:	4f 25       	eor	r20, r15
     560:	80 2f       	mov	r24, r16
     562:	61 2f       	mov	r22, r17
     564:	9b df       	rcall	.-202    	; 0x49c <gfx_mono_st7565r_put_byte>
     566:	0f 90       	pop	r0
     568:	cf 91       	pop	r28
     56a:	df 91       	pop	r29
     56c:	1f 91       	pop	r17
     56e:	0f 91       	pop	r16
     570:	ff 90       	pop	r15
     572:	08 95       	ret

00000574 <gfx_mono_st7565r_get_byte>:
     574:	16 c0       	rjmp	.+44     	; 0x5a2 <gfx_mono_framebuffer_get_byte>
     576:	08 95       	ret

00000578 <gfx_mono_set_framebuffer>:
     578:	80 93 00 22 	sts	0x2200, r24
     57c:	90 93 01 22 	sts	0x2201, r25
     580:	08 95       	ret

00000582 <gfx_mono_framebuffer_put_byte>:
     582:	90 e0       	ldi	r25, 0x00	; 0
     584:	96 95       	lsr	r25
     586:	98 2f       	mov	r25, r24
     588:	88 27       	eor	r24, r24
     58a:	97 95       	ror	r25
     58c:	87 95       	ror	r24
     58e:	86 0f       	add	r24, r22
     590:	91 1d       	adc	r25, r1
     592:	e0 91 00 22 	lds	r30, 0x2200
     596:	f0 91 01 22 	lds	r31, 0x2201
     59a:	e8 0f       	add	r30, r24
     59c:	f9 1f       	adc	r31, r25
     59e:	40 83       	st	Z, r20
     5a0:	08 95       	ret

000005a2 <gfx_mono_framebuffer_get_byte>:
     5a2:	90 e0       	ldi	r25, 0x00	; 0
     5a4:	96 95       	lsr	r25
     5a6:	98 2f       	mov	r25, r24
     5a8:	88 27       	eor	r24, r24
     5aa:	97 95       	ror	r25
     5ac:	87 95       	ror	r24
     5ae:	86 0f       	add	r24, r22
     5b0:	91 1d       	adc	r25, r1
     5b2:	e0 91 00 22 	lds	r30, 0x2200
     5b6:	f0 91 01 22 	lds	r31, 0x2201
     5ba:	e8 0f       	add	r30, r24
     5bc:	f9 1f       	adc	r31, r25
     5be:	80 81       	ld	r24, Z
     5c0:	08 95       	ret

000005c2 <gfx_mono_generic_draw_horizontal_line>:
     5c2:	df 92       	push	r13
     5c4:	ef 92       	push	r14
     5c6:	ff 92       	push	r15
     5c8:	0f 93       	push	r16
     5ca:	1f 93       	push	r17
     5cc:	08 2f       	mov	r16, r24
     5ce:	14 2f       	mov	r17, r20
     5d0:	e8 2f       	mov	r30, r24
     5d2:	f0 e0       	ldi	r31, 0x00	; 0
     5d4:	e4 0f       	add	r30, r20
     5d6:	f1 1d       	adc	r31, r1
     5d8:	e1 38       	cpi	r30, 0x81	; 129
     5da:	f1 05       	cpc	r31, r1
     5dc:	14 f0       	brlt	.+4      	; 0x5e2 <gfx_mono_generic_draw_horizontal_line+0x20>
     5de:	10 e8       	ldi	r17, 0x80	; 128
     5e0:	18 1b       	sub	r17, r24
     5e2:	11 23       	and	r17, r17
     5e4:	09 f4       	brne	.+2      	; 0x5e8 <gfx_mono_generic_draw_horizontal_line+0x26>
     5e6:	4c c0       	rjmp	.+152    	; 0x680 <gfx_mono_generic_draw_horizontal_line+0xbe>
     5e8:	f6 2e       	mov	r15, r22
     5ea:	f6 94       	lsr	r15
     5ec:	f6 94       	lsr	r15
     5ee:	f6 94       	lsr	r15
     5f0:	ef 2d       	mov	r30, r15
     5f2:	f0 e0       	ldi	r31, 0x00	; 0
     5f4:	f0 95       	com	r31
     5f6:	e1 95       	neg	r30
     5f8:	ff 4f       	sbci	r31, 0xFF	; 255
     5fa:	83 e0       	ldi	r24, 0x03	; 3
     5fc:	ee 0f       	add	r30, r30
     5fe:	ff 1f       	adc	r31, r31
     600:	8a 95       	dec	r24
     602:	e1 f7       	brne	.-8      	; 0x5fc <gfx_mono_generic_draw_horizontal_line+0x3a>
     604:	e6 0f       	add	r30, r22
     606:	f1 1d       	adc	r31, r1
     608:	61 e0       	ldi	r22, 0x01	; 1
     60a:	70 e0       	ldi	r23, 0x00	; 0
     60c:	02 c0       	rjmp	.+4      	; 0x612 <gfx_mono_generic_draw_horizontal_line+0x50>
     60e:	66 0f       	add	r22, r22
     610:	77 1f       	adc	r23, r23
     612:	ea 95       	dec	r30
     614:	e2 f7       	brpl	.-8      	; 0x60e <gfx_mono_generic_draw_horizontal_line+0x4c>
     616:	e6 2e       	mov	r14, r22
     618:	21 30       	cpi	r18, 0x01	; 1
     61a:	31 05       	cpc	r19, r1
     61c:	39 f0       	breq	.+14     	; 0x62c <gfx_mono_generic_draw_horizontal_line+0x6a>
     61e:	21 30       	cpi	r18, 0x01	; 1
     620:	31 05       	cpc	r19, r1
     622:	90 f0       	brcs	.+36     	; 0x648 <gfx_mono_generic_draw_horizontal_line+0x86>
     624:	22 30       	cpi	r18, 0x02	; 2
     626:	31 05       	cpc	r19, r1
     628:	59 f5       	brne	.+86     	; 0x680 <gfx_mono_generic_draw_horizontal_line+0xbe>
     62a:	1d c0       	rjmp	.+58     	; 0x666 <gfx_mono_generic_draw_horizontal_line+0xa4>
     62c:	11 50       	subi	r17, 0x01	; 1
     62e:	d1 2e       	mov	r13, r17
     630:	d0 0e       	add	r13, r16
     632:	8f 2d       	mov	r24, r15
     634:	6d 2d       	mov	r22, r13
     636:	9e df       	rcall	.-196    	; 0x574 <gfx_mono_st7565r_get_byte>
     638:	48 2f       	mov	r20, r24
     63a:	4e 29       	or	r20, r14
     63c:	8f 2d       	mov	r24, r15
     63e:	6d 2d       	mov	r22, r13
     640:	2d df       	rcall	.-422    	; 0x49c <gfx_mono_st7565r_put_byte>
     642:	11 23       	and	r17, r17
     644:	99 f7       	brne	.-26     	; 0x62c <gfx_mono_generic_draw_horizontal_line+0x6a>
     646:	1c c0       	rjmp	.+56     	; 0x680 <gfx_mono_generic_draw_horizontal_line+0xbe>
     648:	e0 94       	com	r14
     64a:	11 50       	subi	r17, 0x01	; 1
     64c:	d1 2e       	mov	r13, r17
     64e:	d0 0e       	add	r13, r16
     650:	8f 2d       	mov	r24, r15
     652:	6d 2d       	mov	r22, r13
     654:	8f df       	rcall	.-226    	; 0x574 <gfx_mono_st7565r_get_byte>
     656:	48 2f       	mov	r20, r24
     658:	4e 21       	and	r20, r14
     65a:	8f 2d       	mov	r24, r15
     65c:	6d 2d       	mov	r22, r13
     65e:	1e df       	rcall	.-452    	; 0x49c <gfx_mono_st7565r_put_byte>
     660:	11 23       	and	r17, r17
     662:	99 f7       	brne	.-26     	; 0x64a <gfx_mono_generic_draw_horizontal_line+0x88>
     664:	0d c0       	rjmp	.+26     	; 0x680 <gfx_mono_generic_draw_horizontal_line+0xbe>
     666:	11 50       	subi	r17, 0x01	; 1
     668:	d1 2e       	mov	r13, r17
     66a:	d0 0e       	add	r13, r16
     66c:	8f 2d       	mov	r24, r15
     66e:	6d 2d       	mov	r22, r13
     670:	81 df       	rcall	.-254    	; 0x574 <gfx_mono_st7565r_get_byte>
     672:	48 2f       	mov	r20, r24
     674:	4e 25       	eor	r20, r14
     676:	8f 2d       	mov	r24, r15
     678:	6d 2d       	mov	r22, r13
     67a:	10 df       	rcall	.-480    	; 0x49c <gfx_mono_st7565r_put_byte>
     67c:	11 23       	and	r17, r17
     67e:	99 f7       	brne	.-26     	; 0x666 <gfx_mono_generic_draw_horizontal_line+0xa4>
     680:	1f 91       	pop	r17
     682:	0f 91       	pop	r16
     684:	ff 90       	pop	r15
     686:	ef 90       	pop	r14
     688:	df 90       	pop	r13
     68a:	08 95       	ret

0000068c <gfx_mono_generic_draw_filled_rect>:
     68c:	cf 92       	push	r12
     68e:	df 92       	push	r13
     690:	ef 92       	push	r14
     692:	ff 92       	push	r15
     694:	0f 93       	push	r16
     696:	1f 93       	push	r17
     698:	c8 2e       	mov	r12, r24
     69a:	d6 2e       	mov	r13, r22
     69c:	e4 2e       	mov	r14, r20
     69e:	f2 2e       	mov	r15, r18
     6a0:	ff 20       	and	r15, r15
     6a2:	41 f0       	breq	.+16     	; 0x6b4 <gfx_mono_generic_draw_filled_rect+0x28>
     6a4:	fa 94       	dec	r15
     6a6:	6f 2d       	mov	r22, r15
     6a8:	6d 0d       	add	r22, r13
     6aa:	8c 2d       	mov	r24, r12
     6ac:	4e 2d       	mov	r20, r14
     6ae:	98 01       	movw	r18, r16
     6b0:	88 df       	rcall	.-240    	; 0x5c2 <gfx_mono_generic_draw_horizontal_line>
     6b2:	f6 cf       	rjmp	.-20     	; 0x6a0 <gfx_mono_generic_draw_filled_rect+0x14>
     6b4:	1f 91       	pop	r17
     6b6:	0f 91       	pop	r16
     6b8:	ff 90       	pop	r15
     6ba:	ef 90       	pop	r14
     6bc:	df 90       	pop	r13
     6be:	cf 90       	pop	r12
     6c0:	08 95       	ret

000006c2 <usart_spi_init>:
     6c2:	28 e0       	ldi	r18, 0x08	; 8
     6c4:	80 3a       	cpi	r24, 0xA0	; 160
     6c6:	92 07       	cpc	r25, r18
     6c8:	19 f4       	brne	.+6      	; 0x6d0 <usart_spi_init+0xe>
     6ca:	83 e0       	ldi	r24, 0x03	; 3
     6cc:	90 e0       	ldi	r25, 0x00	; 0
     6ce:	1c c0       	rjmp	.+56     	; 0x708 <usart_spi_init+0x46>
     6d0:	28 e0       	ldi	r18, 0x08	; 8
     6d2:	80 3b       	cpi	r24, 0xB0	; 176
     6d4:	92 07       	cpc	r25, r18
     6d6:	19 f4       	brne	.+6      	; 0x6de <usart_spi_init+0x1c>
     6d8:	83 e0       	ldi	r24, 0x03	; 3
     6da:	90 e0       	ldi	r25, 0x00	; 0
     6dc:	0d c0       	rjmp	.+26     	; 0x6f8 <usart_spi_init+0x36>
     6de:	29 e0       	ldi	r18, 0x09	; 9
     6e0:	80 3a       	cpi	r24, 0xA0	; 160
     6e2:	92 07       	cpc	r25, r18
     6e4:	19 f4       	brne	.+6      	; 0x6ec <usart_spi_init+0x2a>
     6e6:	84 e0       	ldi	r24, 0x04	; 4
     6e8:	90 e0       	ldi	r25, 0x00	; 0
     6ea:	0e c0       	rjmp	.+28     	; 0x708 <usart_spi_init+0x46>
     6ec:	29 e0       	ldi	r18, 0x09	; 9
     6ee:	80 3b       	cpi	r24, 0xB0	; 176
     6f0:	92 07       	cpc	r25, r18
     6f2:	21 f4       	brne	.+8      	; 0x6fc <usart_spi_init+0x3a>
     6f4:	84 e0       	ldi	r24, 0x04	; 4
     6f6:	90 e0       	ldi	r25, 0x00	; 0
     6f8:	60 e2       	ldi	r22, 0x20	; 32
     6fa:	07 c0       	rjmp	.+14     	; 0x70a <usart_spi_init+0x48>
     6fc:	2a e0       	ldi	r18, 0x0A	; 10
     6fe:	80 3a       	cpi	r24, 0xA0	; 160
     700:	92 07       	cpc	r25, r18
     702:	21 f4       	brne	.+8      	; 0x70c <usart_spi_init+0x4a>
     704:	85 e0       	ldi	r24, 0x05	; 5
     706:	90 e0       	ldi	r25, 0x00	; 0
     708:	60 e1       	ldi	r22, 0x10	; 16
     70a:	43 ce       	rjmp	.-890    	; 0x392 <sysclk_enable_module>
     70c:	2b e0       	ldi	r18, 0x0B	; 11
     70e:	80 3a       	cpi	r24, 0xA0	; 160
     710:	92 07       	cpc	r25, r18
     712:	21 f4       	brne	.+8      	; 0x71c <usart_spi_init+0x5a>
     714:	86 e0       	ldi	r24, 0x06	; 6
     716:	90 e0       	ldi	r25, 0x00	; 0
     718:	60 e1       	ldi	r22, 0x10	; 16
     71a:	3b ce       	rjmp	.-906    	; 0x392 <sysclk_enable_module>
     71c:	08 95       	ret

0000071e <usart_spi_setup_device>:
     71e:	0f 93       	push	r16
     720:	1f 93       	push	r17
     722:	df 93       	push	r29
     724:	cf 93       	push	r28
     726:	00 d0       	rcall	.+0      	; 0x728 <usart_spi_setup_device+0xa>
     728:	00 d0       	rcall	.+0      	; 0x72a <usart_spi_setup_device+0xc>
     72a:	cd b7       	in	r28, 0x3d	; 61
     72c:	de b7       	in	r29, 0x3e	; 62
     72e:	09 83       	std	Y+1, r16	; 0x01
     730:	1a 83       	std	Y+2, r17	; 0x02
     732:	2b 83       	std	Y+3, r18	; 0x03
     734:	3c 83       	std	Y+4, r19	; 0x04
     736:	4d 83       	std	Y+5, r20	; 0x05
     738:	1e 82       	std	Y+6, r1	; 0x06
     73a:	be 01       	movw	r22, r28
     73c:	6f 5f       	subi	r22, 0xFF	; 255
     73e:	7f 4f       	sbci	r23, 0xFF	; 255
     740:	ea d3       	rcall	.+2004   	; 0xf16 <usart_init_spi>
     742:	26 96       	adiw	r28, 0x06	; 6
     744:	cd bf       	out	0x3d, r28	; 61
     746:	de bf       	out	0x3e, r29	; 62
     748:	cf 91       	pop	r28
     74a:	df 91       	pop	r29
     74c:	1f 91       	pop	r17
     74e:	0f 91       	pop	r16
     750:	08 95       	ret

00000752 <ioport_configure_pin>:
     752:	ab 01       	movw	r20, r22
     754:	28 2f       	mov	r18, r24
     756:	26 95       	lsr	r18
     758:	26 95       	lsr	r18
     75a:	26 95       	lsr	r18
     75c:	30 e0       	ldi	r19, 0x00	; 0
     75e:	20 5d       	subi	r18, 0xD0	; 208
     760:	3f 4f       	sbci	r19, 0xFF	; 255
     762:	87 70       	andi	r24, 0x07	; 7
     764:	61 e0       	ldi	r22, 0x01	; 1
     766:	70 e0       	ldi	r23, 0x00	; 0
     768:	02 c0       	rjmp	.+4      	; 0x76e <ioport_configure_pin+0x1c>
     76a:	66 0f       	add	r22, r22
     76c:	77 1f       	adc	r23, r23
     76e:	8a 95       	dec	r24
     770:	e2 f7       	brpl	.-8      	; 0x76a <ioport_configure_pin+0x18>
     772:	c9 01       	movw	r24, r18
     774:	25 e0       	ldi	r18, 0x05	; 5
     776:	88 0f       	add	r24, r24
     778:	99 1f       	adc	r25, r25
     77a:	2a 95       	dec	r18
     77c:	e1 f7       	brne	.-8      	; 0x776 <ioport_configure_pin+0x24>
     77e:	30 c3       	rjmp	.+1632   	; 0xde0 <ioport_configure_port_pin>

00000780 <board_init>:
     780:	88 e7       	ldi	r24, 0x78	; 120
     782:	60 e0       	ldi	r22, 0x00	; 0
     784:	73 e0       	ldi	r23, 0x03	; 3
     786:	e5 df       	rcall	.-54     	; 0x752 <ioport_configure_pin>
     788:	89 e7       	ldi	r24, 0x79	; 121
     78a:	60 e0       	ldi	r22, 0x00	; 0
     78c:	73 e0       	ldi	r23, 0x03	; 3
     78e:	e1 df       	rcall	.-62     	; 0x752 <ioport_configure_pin>
     790:	8c e1       	ldi	r24, 0x1C	; 28
     792:	60 e0       	ldi	r22, 0x00	; 0
     794:	73 e0       	ldi	r23, 0x03	; 3
     796:	dd df       	rcall	.-70     	; 0x752 <ioport_configure_pin>
     798:	8d e1       	ldi	r24, 0x1D	; 29
     79a:	60 e4       	ldi	r22, 0x40	; 64
     79c:	71 e0       	ldi	r23, 0x01	; 1
     79e:	d9 df       	rcall	.-78     	; 0x752 <ioport_configure_pin>
     7a0:	85 e2       	ldi	r24, 0x25	; 37
     7a2:	6b e1       	ldi	r22, 0x1B	; 27
     7a4:	70 e0       	ldi	r23, 0x00	; 0
     7a6:	d5 df       	rcall	.-86     	; 0x752 <ioport_configure_pin>
     7a8:	89 e1       	ldi	r24, 0x19	; 25
     7aa:	60 e0       	ldi	r22, 0x00	; 0
     7ac:	73 e0       	ldi	r23, 0x03	; 3
     7ae:	d1 df       	rcall	.-94     	; 0x752 <ioport_configure_pin>
     7b0:	8b e1       	ldi	r24, 0x1B	; 27
     7b2:	60 e0       	ldi	r22, 0x00	; 0
     7b4:	73 e0       	ldi	r23, 0x03	; 3
     7b6:	cd df       	rcall	.-102    	; 0x752 <ioport_configure_pin>
     7b8:	8b e2       	ldi	r24, 0x2B	; 43
     7ba:	60 e0       	ldi	r22, 0x00	; 0
     7bc:	73 e0       	ldi	r23, 0x03	; 3
     7be:	c9 df       	rcall	.-110    	; 0x752 <ioport_configure_pin>
     7c0:	88 e1       	ldi	r24, 0x18	; 24
     7c2:	60 e0       	ldi	r22, 0x00	; 0
     7c4:	73 e0       	ldi	r23, 0x03	; 3
     7c6:	c5 df       	rcall	.-118    	; 0x752 <ioport_configure_pin>
     7c8:	83 e0       	ldi	r24, 0x03	; 3
     7ca:	60 e0       	ldi	r22, 0x00	; 0
     7cc:	73 e0       	ldi	r23, 0x03	; 3
     7ce:	c1 df       	rcall	.-126    	; 0x752 <ioport_configure_pin>
     7d0:	84 e2       	ldi	r24, 0x24	; 36
     7d2:	60 e0       	ldi	r22, 0x00	; 0
     7d4:	71 e0       	ldi	r23, 0x01	; 1
     7d6:	bd cf       	rjmp	.-134    	; 0x752 <ioport_configure_pin>

000007d8 <adc_enable_clock>:
     7d8:	22 e0       	ldi	r18, 0x02	; 2
     7da:	80 30       	cpi	r24, 0x00	; 0
     7dc:	92 07       	cpc	r25, r18
     7de:	61 f4       	brne	.+24     	; 0x7f8 <adc_enable_clock+0x20>
     7e0:	80 91 06 22 	lds	r24, 0x2206
     7e4:	98 2f       	mov	r25, r24
     7e6:	9f 5f       	subi	r25, 0xFF	; 255
     7e8:	90 93 06 22 	sts	0x2206, r25
     7ec:	88 23       	and	r24, r24
     7ee:	a1 f4       	brne	.+40     	; 0x818 <adc_enable_clock+0x40>
     7f0:	81 e0       	ldi	r24, 0x01	; 1
     7f2:	90 e0       	ldi	r25, 0x00	; 0
     7f4:	62 e0       	ldi	r22, 0x02	; 2
     7f6:	cd cd       	rjmp	.-1126   	; 0x392 <sysclk_enable_module>
     7f8:	22 e0       	ldi	r18, 0x02	; 2
     7fa:	80 34       	cpi	r24, 0x40	; 64
     7fc:	92 07       	cpc	r25, r18
     7fe:	61 f4       	brne	.+24     	; 0x818 <adc_enable_clock+0x40>
     800:	80 91 07 22 	lds	r24, 0x2207
     804:	98 2f       	mov	r25, r24
     806:	9f 5f       	subi	r25, 0xFF	; 255
     808:	90 93 07 22 	sts	0x2207, r25
     80c:	88 23       	and	r24, r24
     80e:	21 f4       	brne	.+8      	; 0x818 <adc_enable_clock+0x40>
     810:	82 e0       	ldi	r24, 0x02	; 2
     812:	90 e0       	ldi	r25, 0x00	; 0
     814:	62 e0       	ldi	r22, 0x02	; 2
     816:	bd cd       	rjmp	.-1158   	; 0x392 <sysclk_enable_module>
     818:	08 95       	ret

0000081a <adc_disable_clock>:
     81a:	22 e0       	ldi	r18, 0x02	; 2
     81c:	80 30       	cpi	r24, 0x00	; 0
     81e:	92 07       	cpc	r25, r18
     820:	59 f4       	brne	.+22     	; 0x838 <adc_disable_clock+0x1e>
     822:	80 91 06 22 	lds	r24, 0x2206
     826:	81 50       	subi	r24, 0x01	; 1
     828:	80 93 06 22 	sts	0x2206, r24
     82c:	88 23       	and	r24, r24
     82e:	99 f4       	brne	.+38     	; 0x856 <adc_disable_clock+0x3c>
     830:	81 e0       	ldi	r24, 0x01	; 1
     832:	90 e0       	ldi	r25, 0x00	; 0
     834:	62 e0       	ldi	r22, 0x02	; 2
     836:	b8 cd       	rjmp	.-1168   	; 0x3a8 <sysclk_disable_module>
     838:	22 e0       	ldi	r18, 0x02	; 2
     83a:	80 34       	cpi	r24, 0x40	; 64
     83c:	92 07       	cpc	r25, r18
     83e:	59 f4       	brne	.+22     	; 0x856 <adc_disable_clock+0x3c>
     840:	80 91 07 22 	lds	r24, 0x2207
     844:	81 50       	subi	r24, 0x01	; 1
     846:	80 93 07 22 	sts	0x2207, r24
     84a:	88 23       	and	r24, r24
     84c:	21 f4       	brne	.+8      	; 0x856 <adc_disable_clock+0x3c>
     84e:	82 e0       	ldi	r24, 0x02	; 2
     850:	90 e0       	ldi	r25, 0x00	; 0
     852:	62 e0       	ldi	r22, 0x02	; 2
     854:	a9 cd       	rjmp	.-1198   	; 0x3a8 <sysclk_disable_module>
     856:	08 95       	ret

00000858 <nvm_read_production_signature_row>:
     858:	68 2f       	mov	r22, r24
     85a:	82 e0       	ldi	r24, 0x02	; 2
     85c:	70 e0       	ldi	r23, 0x00	; 0
     85e:	ea c2       	rjmp	.+1492   	; 0xe34 <nvm_read_byte>

00000860 <adc_get_calibration_data>:
     860:	ef 92       	push	r14
     862:	ff 92       	push	r15
     864:	cf 93       	push	r28
     866:	df 93       	push	r29
     868:	81 30       	cpi	r24, 0x01	; 1
     86a:	91 05       	cpc	r25, r1
     86c:	71 f0       	breq	.+28     	; 0x88a <adc_get_calibration_data+0x2a>
     86e:	81 30       	cpi	r24, 0x01	; 1
     870:	91 05       	cpc	r25, r1
     872:	20 f0       	brcs	.+8      	; 0x87c <adc_get_calibration_data+0x1c>
     874:	82 30       	cpi	r24, 0x02	; 2
     876:	91 05       	cpc	r25, r1
     878:	d9 f4       	brne	.+54     	; 0x8b0 <adc_get_calibration_data+0x50>
     87a:	0e c0       	rjmp	.+28     	; 0x898 <adc_get_calibration_data+0x38>
     87c:	81 e2       	ldi	r24, 0x21	; 33
     87e:	ec df       	rcall	.-40     	; 0x858 <nvm_read_production_signature_row>
     880:	98 2f       	mov	r25, r24
     882:	80 e0       	ldi	r24, 0x00	; 0
     884:	ec 01       	movw	r28, r24
     886:	80 e2       	ldi	r24, 0x20	; 32
     888:	0d c0       	rjmp	.+26     	; 0x8a4 <adc_get_calibration_data+0x44>
     88a:	85 e2       	ldi	r24, 0x25	; 37
     88c:	e5 df       	rcall	.-54     	; 0x858 <nvm_read_production_signature_row>
     88e:	98 2f       	mov	r25, r24
     890:	80 e0       	ldi	r24, 0x00	; 0
     892:	ec 01       	movw	r28, r24
     894:	84 e2       	ldi	r24, 0x24	; 36
     896:	06 c0       	rjmp	.+12     	; 0x8a4 <adc_get_calibration_data+0x44>
     898:	8f e2       	ldi	r24, 0x2F	; 47
     89a:	de df       	rcall	.-68     	; 0x858 <nvm_read_production_signature_row>
     89c:	98 2f       	mov	r25, r24
     89e:	80 e0       	ldi	r24, 0x00	; 0
     8a0:	ec 01       	movw	r28, r24
     8a2:	8e e2       	ldi	r24, 0x2E	; 46
     8a4:	d9 df       	rcall	.-78     	; 0x858 <nvm_read_production_signature_row>
     8a6:	28 2f       	mov	r18, r24
     8a8:	30 e0       	ldi	r19, 0x00	; 0
     8aa:	2c 2b       	or	r18, r28
     8ac:	3d 2b       	or	r19, r29
     8ae:	02 c0       	rjmp	.+4      	; 0x8b4 <adc_get_calibration_data+0x54>
     8b0:	20 e0       	ldi	r18, 0x00	; 0
     8b2:	30 e0       	ldi	r19, 0x00	; 0
     8b4:	c9 01       	movw	r24, r18
     8b6:	df 91       	pop	r29
     8b8:	cf 91       	pop	r28
     8ba:	ff 90       	pop	r15
     8bc:	ef 90       	pop	r14
     8be:	08 95       	ret

000008c0 <__vector_71>:
     8c0:	1f 92       	push	r1
     8c2:	0f 92       	push	r0
     8c4:	0f b6       	in	r0, 0x3f	; 63
     8c6:	0f 92       	push	r0
     8c8:	0b b6       	in	r0, 0x3b	; 59
     8ca:	0f 92       	push	r0
     8cc:	11 24       	eor	r1, r1
     8ce:	2f 93       	push	r18
     8d0:	3f 93       	push	r19
     8d2:	4f 93       	push	r20
     8d4:	5f 93       	push	r21
     8d6:	6f 93       	push	r22
     8d8:	7f 93       	push	r23
     8da:	8f 93       	push	r24
     8dc:	9f 93       	push	r25
     8de:	af 93       	push	r26
     8e0:	bf 93       	push	r27
     8e2:	ef 93       	push	r30
     8e4:	ff 93       	push	r31
     8e6:	e0 e0       	ldi	r30, 0x00	; 0
     8e8:	f2 e0       	ldi	r31, 0x02	; 2
     8ea:	44 a1       	ldd	r20, Z+36	; 0x24
     8ec:	55 a1       	ldd	r21, Z+37	; 0x25
     8ee:	e0 91 02 22 	lds	r30, 0x2202
     8f2:	f0 91 03 22 	lds	r31, 0x2203
     8f6:	80 e0       	ldi	r24, 0x00	; 0
     8f8:	92 e0       	ldi	r25, 0x02	; 2
     8fa:	61 e0       	ldi	r22, 0x01	; 1
     8fc:	19 95       	eicall
     8fe:	ff 91       	pop	r31
     900:	ef 91       	pop	r30
     902:	bf 91       	pop	r27
     904:	af 91       	pop	r26
     906:	9f 91       	pop	r25
     908:	8f 91       	pop	r24
     90a:	7f 91       	pop	r23
     90c:	6f 91       	pop	r22
     90e:	5f 91       	pop	r21
     910:	4f 91       	pop	r20
     912:	3f 91       	pop	r19
     914:	2f 91       	pop	r18
     916:	0f 90       	pop	r0
     918:	0b be       	out	0x3b, r0	; 59
     91a:	0f 90       	pop	r0
     91c:	0f be       	out	0x3f, r0	; 63
     91e:	0f 90       	pop	r0
     920:	1f 90       	pop	r1
     922:	18 95       	reti

00000924 <__vector_72>:
     924:	1f 92       	push	r1
     926:	0f 92       	push	r0
     928:	0f b6       	in	r0, 0x3f	; 63
     92a:	0f 92       	push	r0
     92c:	0b b6       	in	r0, 0x3b	; 59
     92e:	0f 92       	push	r0
     930:	11 24       	eor	r1, r1
     932:	2f 93       	push	r18
     934:	3f 93       	push	r19
     936:	4f 93       	push	r20
     938:	5f 93       	push	r21
     93a:	6f 93       	push	r22
     93c:	7f 93       	push	r23
     93e:	8f 93       	push	r24
     940:	9f 93       	push	r25
     942:	af 93       	push	r26
     944:	bf 93       	push	r27
     946:	ef 93       	push	r30
     948:	ff 93       	push	r31
     94a:	e7 e2       	ldi	r30, 0x27	; 39
     94c:	f2 e0       	ldi	r31, 0x02	; 2
     94e:	44 81       	ldd	r20, Z+4	; 0x04
     950:	55 81       	ldd	r21, Z+5	; 0x05
     952:	e0 91 02 22 	lds	r30, 0x2202
     956:	f0 91 03 22 	lds	r31, 0x2203
     95a:	80 e0       	ldi	r24, 0x00	; 0
     95c:	92 e0       	ldi	r25, 0x02	; 2
     95e:	62 e0       	ldi	r22, 0x02	; 2
     960:	19 95       	eicall
     962:	ff 91       	pop	r31
     964:	ef 91       	pop	r30
     966:	bf 91       	pop	r27
     968:	af 91       	pop	r26
     96a:	9f 91       	pop	r25
     96c:	8f 91       	pop	r24
     96e:	7f 91       	pop	r23
     970:	6f 91       	pop	r22
     972:	5f 91       	pop	r21
     974:	4f 91       	pop	r20
     976:	3f 91       	pop	r19
     978:	2f 91       	pop	r18
     97a:	0f 90       	pop	r0
     97c:	0b be       	out	0x3b, r0	; 59
     97e:	0f 90       	pop	r0
     980:	0f be       	out	0x3f, r0	; 63
     982:	0f 90       	pop	r0
     984:	1f 90       	pop	r1
     986:	18 95       	reti

00000988 <__vector_73>:
     988:	1f 92       	push	r1
     98a:	0f 92       	push	r0
     98c:	0f b6       	in	r0, 0x3f	; 63
     98e:	0f 92       	push	r0
     990:	0b b6       	in	r0, 0x3b	; 59
     992:	0f 92       	push	r0
     994:	11 24       	eor	r1, r1
     996:	2f 93       	push	r18
     998:	3f 93       	push	r19
     99a:	4f 93       	push	r20
     99c:	5f 93       	push	r21
     99e:	6f 93       	push	r22
     9a0:	7f 93       	push	r23
     9a2:	8f 93       	push	r24
     9a4:	9f 93       	push	r25
     9a6:	af 93       	push	r26
     9a8:	bf 93       	push	r27
     9aa:	ef 93       	push	r30
     9ac:	ff 93       	push	r31
     9ae:	ee e2       	ldi	r30, 0x2E	; 46
     9b0:	f2 e0       	ldi	r31, 0x02	; 2
     9b2:	44 81       	ldd	r20, Z+4	; 0x04
     9b4:	55 81       	ldd	r21, Z+5	; 0x05
     9b6:	e0 91 02 22 	lds	r30, 0x2202
     9ba:	f0 91 03 22 	lds	r31, 0x2203
     9be:	80 e0       	ldi	r24, 0x00	; 0
     9c0:	92 e0       	ldi	r25, 0x02	; 2
     9c2:	64 e0       	ldi	r22, 0x04	; 4
     9c4:	19 95       	eicall
     9c6:	ff 91       	pop	r31
     9c8:	ef 91       	pop	r30
     9ca:	bf 91       	pop	r27
     9cc:	af 91       	pop	r26
     9ce:	9f 91       	pop	r25
     9d0:	8f 91       	pop	r24
     9d2:	7f 91       	pop	r23
     9d4:	6f 91       	pop	r22
     9d6:	5f 91       	pop	r21
     9d8:	4f 91       	pop	r20
     9da:	3f 91       	pop	r19
     9dc:	2f 91       	pop	r18
     9de:	0f 90       	pop	r0
     9e0:	0b be       	out	0x3b, r0	; 59
     9e2:	0f 90       	pop	r0
     9e4:	0f be       	out	0x3f, r0	; 63
     9e6:	0f 90       	pop	r0
     9e8:	1f 90       	pop	r1
     9ea:	18 95       	reti

000009ec <__vector_74>:
     9ec:	1f 92       	push	r1
     9ee:	0f 92       	push	r0
     9f0:	0f b6       	in	r0, 0x3f	; 63
     9f2:	0f 92       	push	r0
     9f4:	0b b6       	in	r0, 0x3b	; 59
     9f6:	0f 92       	push	r0
     9f8:	11 24       	eor	r1, r1
     9fa:	2f 93       	push	r18
     9fc:	3f 93       	push	r19
     9fe:	4f 93       	push	r20
     a00:	5f 93       	push	r21
     a02:	6f 93       	push	r22
     a04:	7f 93       	push	r23
     a06:	8f 93       	push	r24
     a08:	9f 93       	push	r25
     a0a:	af 93       	push	r26
     a0c:	bf 93       	push	r27
     a0e:	ef 93       	push	r30
     a10:	ff 93       	push	r31
     a12:	e5 e3       	ldi	r30, 0x35	; 53
     a14:	f2 e0       	ldi	r31, 0x02	; 2
     a16:	44 81       	ldd	r20, Z+4	; 0x04
     a18:	55 81       	ldd	r21, Z+5	; 0x05
     a1a:	e0 91 02 22 	lds	r30, 0x2202
     a1e:	f0 91 03 22 	lds	r31, 0x2203
     a22:	80 e0       	ldi	r24, 0x00	; 0
     a24:	92 e0       	ldi	r25, 0x02	; 2
     a26:	68 e0       	ldi	r22, 0x08	; 8
     a28:	19 95       	eicall
     a2a:	ff 91       	pop	r31
     a2c:	ef 91       	pop	r30
     a2e:	bf 91       	pop	r27
     a30:	af 91       	pop	r26
     a32:	9f 91       	pop	r25
     a34:	8f 91       	pop	r24
     a36:	7f 91       	pop	r23
     a38:	6f 91       	pop	r22
     a3a:	5f 91       	pop	r21
     a3c:	4f 91       	pop	r20
     a3e:	3f 91       	pop	r19
     a40:	2f 91       	pop	r18
     a42:	0f 90       	pop	r0
     a44:	0b be       	out	0x3b, r0	; 59
     a46:	0f 90       	pop	r0
     a48:	0f be       	out	0x3f, r0	; 63
     a4a:	0f 90       	pop	r0
     a4c:	1f 90       	pop	r1
     a4e:	18 95       	reti

00000a50 <__vector_39>:
     a50:	1f 92       	push	r1
     a52:	0f 92       	push	r0
     a54:	0f b6       	in	r0, 0x3f	; 63
     a56:	0f 92       	push	r0
     a58:	0b b6       	in	r0, 0x3b	; 59
     a5a:	0f 92       	push	r0
     a5c:	11 24       	eor	r1, r1
     a5e:	2f 93       	push	r18
     a60:	3f 93       	push	r19
     a62:	4f 93       	push	r20
     a64:	5f 93       	push	r21
     a66:	6f 93       	push	r22
     a68:	7f 93       	push	r23
     a6a:	8f 93       	push	r24
     a6c:	9f 93       	push	r25
     a6e:	af 93       	push	r26
     a70:	bf 93       	push	r27
     a72:	ef 93       	push	r30
     a74:	ff 93       	push	r31
     a76:	e0 e4       	ldi	r30, 0x40	; 64
     a78:	f2 e0       	ldi	r31, 0x02	; 2
     a7a:	44 a1       	ldd	r20, Z+36	; 0x24
     a7c:	55 a1       	ldd	r21, Z+37	; 0x25
     a7e:	e0 91 04 22 	lds	r30, 0x2204
     a82:	f0 91 05 22 	lds	r31, 0x2205
     a86:	80 e4       	ldi	r24, 0x40	; 64
     a88:	92 e0       	ldi	r25, 0x02	; 2
     a8a:	61 e0       	ldi	r22, 0x01	; 1
     a8c:	19 95       	eicall
     a8e:	ff 91       	pop	r31
     a90:	ef 91       	pop	r30
     a92:	bf 91       	pop	r27
     a94:	af 91       	pop	r26
     a96:	9f 91       	pop	r25
     a98:	8f 91       	pop	r24
     a9a:	7f 91       	pop	r23
     a9c:	6f 91       	pop	r22
     a9e:	5f 91       	pop	r21
     aa0:	4f 91       	pop	r20
     aa2:	3f 91       	pop	r19
     aa4:	2f 91       	pop	r18
     aa6:	0f 90       	pop	r0
     aa8:	0b be       	out	0x3b, r0	; 59
     aaa:	0f 90       	pop	r0
     aac:	0f be       	out	0x3f, r0	; 63
     aae:	0f 90       	pop	r0
     ab0:	1f 90       	pop	r1
     ab2:	18 95       	reti

00000ab4 <__vector_40>:
     ab4:	1f 92       	push	r1
     ab6:	0f 92       	push	r0
     ab8:	0f b6       	in	r0, 0x3f	; 63
     aba:	0f 92       	push	r0
     abc:	0b b6       	in	r0, 0x3b	; 59
     abe:	0f 92       	push	r0
     ac0:	11 24       	eor	r1, r1
     ac2:	2f 93       	push	r18
     ac4:	3f 93       	push	r19
     ac6:	4f 93       	push	r20
     ac8:	5f 93       	push	r21
     aca:	6f 93       	push	r22
     acc:	7f 93       	push	r23
     ace:	8f 93       	push	r24
     ad0:	9f 93       	push	r25
     ad2:	af 93       	push	r26
     ad4:	bf 93       	push	r27
     ad6:	ef 93       	push	r30
     ad8:	ff 93       	push	r31
     ada:	e7 e6       	ldi	r30, 0x67	; 103
     adc:	f2 e0       	ldi	r31, 0x02	; 2
     ade:	44 81       	ldd	r20, Z+4	; 0x04
     ae0:	55 81       	ldd	r21, Z+5	; 0x05
     ae2:	e0 91 04 22 	lds	r30, 0x2204
     ae6:	f0 91 05 22 	lds	r31, 0x2205
     aea:	80 e4       	ldi	r24, 0x40	; 64
     aec:	92 e0       	ldi	r25, 0x02	; 2
     aee:	62 e0       	ldi	r22, 0x02	; 2
     af0:	19 95       	eicall
     af2:	ff 91       	pop	r31
     af4:	ef 91       	pop	r30
     af6:	bf 91       	pop	r27
     af8:	af 91       	pop	r26
     afa:	9f 91       	pop	r25
     afc:	8f 91       	pop	r24
     afe:	7f 91       	pop	r23
     b00:	6f 91       	pop	r22
     b02:	5f 91       	pop	r21
     b04:	4f 91       	pop	r20
     b06:	3f 91       	pop	r19
     b08:	2f 91       	pop	r18
     b0a:	0f 90       	pop	r0
     b0c:	0b be       	out	0x3b, r0	; 59
     b0e:	0f 90       	pop	r0
     b10:	0f be       	out	0x3f, r0	; 63
     b12:	0f 90       	pop	r0
     b14:	1f 90       	pop	r1
     b16:	18 95       	reti

00000b18 <__vector_41>:
     b18:	1f 92       	push	r1
     b1a:	0f 92       	push	r0
     b1c:	0f b6       	in	r0, 0x3f	; 63
     b1e:	0f 92       	push	r0
     b20:	0b b6       	in	r0, 0x3b	; 59
     b22:	0f 92       	push	r0
     b24:	11 24       	eor	r1, r1
     b26:	2f 93       	push	r18
     b28:	3f 93       	push	r19
     b2a:	4f 93       	push	r20
     b2c:	5f 93       	push	r21
     b2e:	6f 93       	push	r22
     b30:	7f 93       	push	r23
     b32:	8f 93       	push	r24
     b34:	9f 93       	push	r25
     b36:	af 93       	push	r26
     b38:	bf 93       	push	r27
     b3a:	ef 93       	push	r30
     b3c:	ff 93       	push	r31
     b3e:	ee e6       	ldi	r30, 0x6E	; 110
     b40:	f2 e0       	ldi	r31, 0x02	; 2
     b42:	44 81       	ldd	r20, Z+4	; 0x04
     b44:	55 81       	ldd	r21, Z+5	; 0x05
     b46:	e0 91 04 22 	lds	r30, 0x2204
     b4a:	f0 91 05 22 	lds	r31, 0x2205
     b4e:	80 e4       	ldi	r24, 0x40	; 64
     b50:	92 e0       	ldi	r25, 0x02	; 2
     b52:	64 e0       	ldi	r22, 0x04	; 4
     b54:	19 95       	eicall
     b56:	ff 91       	pop	r31
     b58:	ef 91       	pop	r30
     b5a:	bf 91       	pop	r27
     b5c:	af 91       	pop	r26
     b5e:	9f 91       	pop	r25
     b60:	8f 91       	pop	r24
     b62:	7f 91       	pop	r23
     b64:	6f 91       	pop	r22
     b66:	5f 91       	pop	r21
     b68:	4f 91       	pop	r20
     b6a:	3f 91       	pop	r19
     b6c:	2f 91       	pop	r18
     b6e:	0f 90       	pop	r0
     b70:	0b be       	out	0x3b, r0	; 59
     b72:	0f 90       	pop	r0
     b74:	0f be       	out	0x3f, r0	; 63
     b76:	0f 90       	pop	r0
     b78:	1f 90       	pop	r1
     b7a:	18 95       	reti

00000b7c <__vector_42>:
     b7c:	1f 92       	push	r1
     b7e:	0f 92       	push	r0
     b80:	0f b6       	in	r0, 0x3f	; 63
     b82:	0f 92       	push	r0
     b84:	0b b6       	in	r0, 0x3b	; 59
     b86:	0f 92       	push	r0
     b88:	11 24       	eor	r1, r1
     b8a:	2f 93       	push	r18
     b8c:	3f 93       	push	r19
     b8e:	4f 93       	push	r20
     b90:	5f 93       	push	r21
     b92:	6f 93       	push	r22
     b94:	7f 93       	push	r23
     b96:	8f 93       	push	r24
     b98:	9f 93       	push	r25
     b9a:	af 93       	push	r26
     b9c:	bf 93       	push	r27
     b9e:	ef 93       	push	r30
     ba0:	ff 93       	push	r31
     ba2:	e5 e7       	ldi	r30, 0x75	; 117
     ba4:	f2 e0       	ldi	r31, 0x02	; 2
     ba6:	44 81       	ldd	r20, Z+4	; 0x04
     ba8:	55 81       	ldd	r21, Z+5	; 0x05
     baa:	e0 91 04 22 	lds	r30, 0x2204
     bae:	f0 91 05 22 	lds	r31, 0x2205
     bb2:	80 e4       	ldi	r24, 0x40	; 64
     bb4:	92 e0       	ldi	r25, 0x02	; 2
     bb6:	68 e0       	ldi	r22, 0x08	; 8
     bb8:	19 95       	eicall
     bba:	ff 91       	pop	r31
     bbc:	ef 91       	pop	r30
     bbe:	bf 91       	pop	r27
     bc0:	af 91       	pop	r26
     bc2:	9f 91       	pop	r25
     bc4:	8f 91       	pop	r24
     bc6:	7f 91       	pop	r23
     bc8:	6f 91       	pop	r22
     bca:	5f 91       	pop	r21
     bcc:	4f 91       	pop	r20
     bce:	3f 91       	pop	r19
     bd0:	2f 91       	pop	r18
     bd2:	0f 90       	pop	r0
     bd4:	0b be       	out	0x3b, r0	; 59
     bd6:	0f 90       	pop	r0
     bd8:	0f be       	out	0x3f, r0	; 63
     bda:	0f 90       	pop	r0
     bdc:	1f 90       	pop	r1
     bde:	18 95       	reti

00000be0 <adc_enable>:
     be0:	1f 93       	push	r17
     be2:	cf 93       	push	r28
     be4:	df 93       	push	r29
     be6:	ec 01       	movw	r28, r24
     be8:	1f b7       	in	r17, 0x3f	; 63
     bea:	f8 94       	cli
     bec:	f5 dd       	rcall	.-1046   	; 0x7d8 <adc_enable_clock>
     bee:	88 81       	ld	r24, Y
     bf0:	81 60       	ori	r24, 0x01	; 1
     bf2:	88 83       	st	Y, r24
     bf4:	1f bf       	out	0x3f, r17	; 63
     bf6:	9f b7       	in	r25, 0x3f	; 63
     bf8:	f8 94       	cli
     bfa:	80 91 16 22 	lds	r24, 0x2216
     bfe:	8f 5f       	subi	r24, 0xFF	; 255
     c00:	80 93 16 22 	sts	0x2216, r24
     c04:	9f bf       	out	0x3f, r25	; 63
     c06:	df 91       	pop	r29
     c08:	cf 91       	pop	r28
     c0a:	1f 91       	pop	r17
     c0c:	08 95       	ret

00000c0e <adc_write_configuration>:
     c0e:	df 92       	push	r13
     c10:	ef 92       	push	r14
     c12:	ff 92       	push	r15
     c14:	0f 93       	push	r16
     c16:	1f 93       	push	r17
     c18:	cf 93       	push	r28
     c1a:	df 93       	push	r29
     c1c:	ec 01       	movw	r28, r24
     c1e:	8b 01       	movw	r16, r22
     c20:	82 e0       	ldi	r24, 0x02	; 2
     c22:	c0 30       	cpi	r28, 0x00	; 0
     c24:	d8 07       	cpc	r29, r24
     c26:	19 f4       	brne	.+6      	; 0xc2e <adc_write_configuration+0x20>
     c28:	80 e0       	ldi	r24, 0x00	; 0
     c2a:	90 e0       	ldi	r25, 0x00	; 0
     c2c:	06 c0       	rjmp	.+12     	; 0xc3a <adc_write_configuration+0x2c>
     c2e:	e2 e0       	ldi	r30, 0x02	; 2
     c30:	c0 34       	cpi	r28, 0x40	; 64
     c32:	de 07       	cpc	r29, r30
     c34:	09 f5       	brne	.+66     	; 0xc78 <adc_write_configuration+0x6a>
     c36:	81 e0       	ldi	r24, 0x01	; 1
     c38:	90 e0       	ldi	r25, 0x00	; 0
     c3a:	12 de       	rcall	.-988    	; 0x860 <adc_get_calibration_data>
     c3c:	7c 01       	movw	r14, r24
     c3e:	df b6       	in	r13, 0x3f	; 63
     c40:	f8 94       	cli
     c42:	ce 01       	movw	r24, r28
     c44:	c9 dd       	rcall	.-1134   	; 0x7d8 <adc_enable_clock>
     c46:	28 81       	ld	r18, Y
     c48:	82 e0       	ldi	r24, 0x02	; 2
     c4a:	88 83       	st	Y, r24
     c4c:	ec 86       	std	Y+12, r14	; 0x0c
     c4e:	fd 86       	std	Y+13, r15	; 0x0d
     c50:	f8 01       	movw	r30, r16
     c52:	85 81       	ldd	r24, Z+5	; 0x05
     c54:	96 81       	ldd	r25, Z+6	; 0x06
     c56:	88 8f       	std	Y+24, r24	; 0x18
     c58:	99 8f       	std	Y+25, r25	; 0x19
     c5a:	82 81       	ldd	r24, Z+2	; 0x02
     c5c:	8a 83       	std	Y+2, r24	; 0x02
     c5e:	84 81       	ldd	r24, Z+4	; 0x04
     c60:	8c 83       	std	Y+4, r24	; 0x04
     c62:	83 81       	ldd	r24, Z+3	; 0x03
     c64:	8b 83       	std	Y+3, r24	; 0x03
     c66:	81 81       	ldd	r24, Z+1	; 0x01
     c68:	89 83       	std	Y+1, r24	; 0x01
     c6a:	21 70       	andi	r18, 0x01	; 1
     c6c:	80 81       	ld	r24, Z
     c6e:	28 2b       	or	r18, r24
     c70:	28 83       	st	Y, r18
     c72:	ce 01       	movw	r24, r28
     c74:	d2 dd       	rcall	.-1116   	; 0x81a <adc_disable_clock>
     c76:	df be       	out	0x3f, r13	; 63
     c78:	df 91       	pop	r29
     c7a:	cf 91       	pop	r28
     c7c:	1f 91       	pop	r17
     c7e:	0f 91       	pop	r16
     c80:	ff 90       	pop	r15
     c82:	ef 90       	pop	r14
     c84:	df 90       	pop	r13
     c86:	08 95       	ret

00000c88 <adc_read_configuration>:
     c88:	ff 92       	push	r15
     c8a:	0f 93       	push	r16
     c8c:	1f 93       	push	r17
     c8e:	cf 93       	push	r28
     c90:	df 93       	push	r29
     c92:	ec 01       	movw	r28, r24
     c94:	8b 01       	movw	r16, r22
     c96:	ff b6       	in	r15, 0x3f	; 63
     c98:	f8 94       	cli
     c9a:	9e dd       	rcall	.-1220   	; 0x7d8 <adc_enable_clock>
     c9c:	88 81       	ld	r24, Y
     c9e:	80 7c       	andi	r24, 0xC0	; 192
     ca0:	f8 01       	movw	r30, r16
     ca2:	80 83       	st	Z, r24
     ca4:	88 8d       	ldd	r24, Y+24	; 0x18
     ca6:	99 8d       	ldd	r25, Y+25	; 0x19
     ca8:	85 83       	std	Z+5, r24	; 0x05
     caa:	96 83       	std	Z+6, r25	; 0x06
     cac:	8a 81       	ldd	r24, Y+2	; 0x02
     cae:	82 83       	std	Z+2, r24	; 0x02
     cb0:	8c 81       	ldd	r24, Y+4	; 0x04
     cb2:	84 83       	std	Z+4, r24	; 0x04
     cb4:	8b 81       	ldd	r24, Y+3	; 0x03
     cb6:	83 83       	std	Z+3, r24	; 0x03
     cb8:	89 81       	ldd	r24, Y+1	; 0x01
     cba:	81 83       	std	Z+1, r24	; 0x01
     cbc:	ce 01       	movw	r24, r28
     cbe:	ad dd       	rcall	.-1190   	; 0x81a <adc_disable_clock>
     cc0:	ff be       	out	0x3f, r15	; 63
     cc2:	df 91       	pop	r29
     cc4:	cf 91       	pop	r28
     cc6:	1f 91       	pop	r17
     cc8:	0f 91       	pop	r16
     cca:	ff 90       	pop	r15
     ccc:	08 95       	ret

00000cce <adcch_write_configuration>:
     cce:	df 92       	push	r13
     cd0:	ef 92       	push	r14
     cd2:	ff 92       	push	r15
     cd4:	0f 93       	push	r16
     cd6:	1f 93       	push	r17
     cd8:	cf 93       	push	r28
     cda:	df 93       	push	r29
     cdc:	ec 01       	movw	r28, r24
     cde:	7a 01       	movw	r14, r20
     ce0:	86 2f       	mov	r24, r22
     ce2:	90 e0       	ldi	r25, 0x00	; 0
     ce4:	83 70       	andi	r24, 0x03	; 3
     ce6:	90 70       	andi	r25, 0x00	; 0
     ce8:	00 97       	sbiw	r24, 0x00	; 0
     cea:	21 f4       	brne	.+8      	; 0xcf4 <adcch_write_configuration+0x26>
     cec:	66 95       	lsr	r22
     cee:	66 95       	lsr	r22
     cf0:	82 e0       	ldi	r24, 0x02	; 2
     cf2:	01 c0       	rjmp	.+2      	; 0xcf6 <adcch_write_configuration+0x28>
     cf4:	80 e0       	ldi	r24, 0x00	; 0
     cf6:	60 ff       	sbrs	r22, 0
     cf8:	8f 5f       	subi	r24, 0xFF	; 255
     cfa:	8e 01       	movw	r16, r28
     cfc:	00 5e       	subi	r16, 0xE0	; 224
     cfe:	1f 4f       	sbci	r17, 0xFF	; 255
     d00:	97 e0       	ldi	r25, 0x07	; 7
     d02:	89 9f       	mul	r24, r25
     d04:	c0 01       	movw	r24, r0
     d06:	11 24       	eor	r1, r1
     d08:	08 0f       	add	r16, r24
     d0a:	19 1f       	adc	r17, r25
     d0c:	df b6       	in	r13, 0x3f	; 63
     d0e:	f8 94       	cli
     d10:	ce 01       	movw	r24, r28
     d12:	62 dd       	rcall	.-1340   	; 0x7d8 <adc_enable_clock>
     d14:	f7 01       	movw	r30, r14
     d16:	80 81       	ld	r24, Z
     d18:	f8 01       	movw	r30, r16
     d1a:	80 83       	st	Z, r24
     d1c:	f7 01       	movw	r30, r14
     d1e:	82 81       	ldd	r24, Z+2	; 0x02
     d20:	f8 01       	movw	r30, r16
     d22:	82 83       	std	Z+2, r24	; 0x02
     d24:	f7 01       	movw	r30, r14
     d26:	81 81       	ldd	r24, Z+1	; 0x01
     d28:	f8 01       	movw	r30, r16
     d2a:	81 83       	std	Z+1, r24	; 0x01
     d2c:	ce 01       	movw	r24, r28
     d2e:	75 dd       	rcall	.-1302   	; 0x81a <adc_disable_clock>
     d30:	df be       	out	0x3f, r13	; 63
     d32:	df 91       	pop	r29
     d34:	cf 91       	pop	r28
     d36:	1f 91       	pop	r17
     d38:	0f 91       	pop	r16
     d3a:	ff 90       	pop	r15
     d3c:	ef 90       	pop	r14
     d3e:	df 90       	pop	r13
     d40:	08 95       	ret

00000d42 <adcch_read_configuration>:
     d42:	df 92       	push	r13
     d44:	ef 92       	push	r14
     d46:	ff 92       	push	r15
     d48:	0f 93       	push	r16
     d4a:	1f 93       	push	r17
     d4c:	cf 93       	push	r28
     d4e:	df 93       	push	r29
     d50:	ec 01       	movw	r28, r24
     d52:	7a 01       	movw	r14, r20
     d54:	86 2f       	mov	r24, r22
     d56:	90 e0       	ldi	r25, 0x00	; 0
     d58:	83 70       	andi	r24, 0x03	; 3
     d5a:	90 70       	andi	r25, 0x00	; 0
     d5c:	00 97       	sbiw	r24, 0x00	; 0
     d5e:	21 f4       	brne	.+8      	; 0xd68 <adcch_read_configuration+0x26>
     d60:	66 95       	lsr	r22
     d62:	66 95       	lsr	r22
     d64:	82 e0       	ldi	r24, 0x02	; 2
     d66:	01 c0       	rjmp	.+2      	; 0xd6a <adcch_read_configuration+0x28>
     d68:	80 e0       	ldi	r24, 0x00	; 0
     d6a:	60 ff       	sbrs	r22, 0
     d6c:	8f 5f       	subi	r24, 0xFF	; 255
     d6e:	8e 01       	movw	r16, r28
     d70:	00 5e       	subi	r16, 0xE0	; 224
     d72:	1f 4f       	sbci	r17, 0xFF	; 255
     d74:	97 e0       	ldi	r25, 0x07	; 7
     d76:	89 9f       	mul	r24, r25
     d78:	c0 01       	movw	r24, r0
     d7a:	11 24       	eor	r1, r1
     d7c:	08 0f       	add	r16, r24
     d7e:	19 1f       	adc	r17, r25
     d80:	df b6       	in	r13, 0x3f	; 63
     d82:	f8 94       	cli
     d84:	ce 01       	movw	r24, r28
     d86:	28 dd       	rcall	.-1456   	; 0x7d8 <adc_enable_clock>
     d88:	f8 01       	movw	r30, r16
     d8a:	80 81       	ld	r24, Z
     d8c:	f7 01       	movw	r30, r14
     d8e:	80 83       	st	Z, r24
     d90:	f8 01       	movw	r30, r16
     d92:	82 81       	ldd	r24, Z+2	; 0x02
     d94:	f7 01       	movw	r30, r14
     d96:	82 83       	std	Z+2, r24	; 0x02
     d98:	f8 01       	movw	r30, r16
     d9a:	81 81       	ldd	r24, Z+1	; 0x01
     d9c:	f7 01       	movw	r30, r14
     d9e:	81 83       	std	Z+1, r24	; 0x01
     da0:	ce 01       	movw	r24, r28
     da2:	3b dd       	rcall	.-1418   	; 0x81a <adc_disable_clock>
     da4:	df be       	out	0x3f, r13	; 63
     da6:	df 91       	pop	r29
     da8:	cf 91       	pop	r28
     daa:	1f 91       	pop	r17
     dac:	0f 91       	pop	r16
     dae:	ff 90       	pop	r15
     db0:	ef 90       	pop	r14
     db2:	df 90       	pop	r13
     db4:	08 95       	ret

00000db6 <adc_set_callback>:
     db6:	2f b7       	in	r18, 0x3f	; 63
     db8:	f8 94       	cli
     dba:	32 e0       	ldi	r19, 0x02	; 2
     dbc:	80 30       	cpi	r24, 0x00	; 0
     dbe:	93 07       	cpc	r25, r19
     dc0:	29 f4       	brne	.+10     	; 0xdcc <adc_set_callback+0x16>
     dc2:	60 93 02 22 	sts	0x2202, r22
     dc6:	70 93 03 22 	sts	0x2203, r23
     dca:	08 c0       	rjmp	.+16     	; 0xddc <adc_set_callback+0x26>
     dcc:	32 e0       	ldi	r19, 0x02	; 2
     dce:	80 34       	cpi	r24, 0x40	; 64
     dd0:	93 07       	cpc	r25, r19
     dd2:	21 f4       	brne	.+8      	; 0xddc <adc_set_callback+0x26>
     dd4:	60 93 04 22 	sts	0x2204, r22
     dd8:	70 93 05 22 	sts	0x2205, r23
     ddc:	2f bf       	out	0x3f, r18	; 63
     dde:	08 95       	ret

00000de0 <ioport_configure_port_pin>:
     de0:	0f 93       	push	r16
     de2:	1f 93       	push	r17
     de4:	cf 93       	push	r28
     de6:	df 93       	push	r29
     de8:	fc 01       	movw	r30, r24
     dea:	dc 01       	movw	r26, r24
     dec:	80 e0       	ldi	r24, 0x00	; 0
     dee:	90 e0       	ldi	r25, 0x00	; 0
     df0:	26 2f       	mov	r18, r22
     df2:	30 e0       	ldi	r19, 0x00	; 0
     df4:	e9 01       	movw	r28, r18
     df6:	08 2e       	mov	r0, r24
     df8:	02 c0       	rjmp	.+4      	; 0xdfe <ioport_configure_port_pin+0x1e>
     dfa:	d5 95       	asr	r29
     dfc:	c7 95       	ror	r28
     dfe:	0a 94       	dec	r0
     e00:	e2 f7       	brpl	.-8      	; 0xdfa <ioport_configure_port_pin+0x1a>
     e02:	c0 ff       	sbrs	r28, 0
     e04:	03 c0       	rjmp	.+6      	; 0xe0c <ioport_configure_port_pin+0x2c>
     e06:	50 96       	adiw	r26, 0x10	; 16
     e08:	4c 93       	st	X, r20
     e0a:	50 97       	sbiw	r26, 0x10	; 16
     e0c:	01 96       	adiw	r24, 0x01	; 1
     e0e:	11 96       	adiw	r26, 0x01	; 1
     e10:	88 30       	cpi	r24, 0x08	; 8
     e12:	91 05       	cpc	r25, r1
     e14:	79 f7       	brne	.-34     	; 0xdf4 <ioport_configure_port_pin+0x14>
     e16:	50 ff       	sbrs	r21, 0
     e18:	07 c0       	rjmp	.+14     	; 0xe28 <ioport_configure_port_pin+0x48>
     e1a:	51 ff       	sbrs	r21, 1
     e1c:	02 c0       	rjmp	.+4      	; 0xe22 <ioport_configure_port_pin+0x42>
     e1e:	65 83       	std	Z+5, r22	; 0x05
     e20:	01 c0       	rjmp	.+2      	; 0xe24 <ioport_configure_port_pin+0x44>
     e22:	66 83       	std	Z+6, r22	; 0x06
     e24:	61 83       	std	Z+1, r22	; 0x01
     e26:	01 c0       	rjmp	.+2      	; 0xe2a <ioport_configure_port_pin+0x4a>
     e28:	62 83       	std	Z+2, r22	; 0x02
     e2a:	df 91       	pop	r29
     e2c:	cf 91       	pop	r28
     e2e:	1f 91       	pop	r17
     e30:	0f 91       	pop	r16
     e32:	08 95       	ret

00000e34 <nvm_read_byte>:
#endif

#ifndef __DOXYGEN__
	PUBLIC_FUNCTION(nvm_read_byte)
#if defined(__GNUC__)
	lds r20, NVM_CMD          ; Store NVM command register
     e34:	40 91 ca 01 	lds	r20, 0x01CA
	mov ZL, r22               ; Load byte index into low byte of Z.
     e38:	e6 2f       	mov	r30, r22
	mov ZH, r23               ; Load high byte into Z.
     e3a:	f7 2f       	mov	r31, r23
	sts NVM_CMD, r24          ; Load prepared command into NVM Command register.
     e3c:	80 93 ca 01 	sts	0x01CA, r24
	lpm r24, Z                ; Perform an LPM to read out byte
     e40:	84 91       	lpm	r24, Z+
	sts NVM_CMD, r20          ; Restore NVM command register
     e42:	40 93 ca 01 	sts	0x01CA, r20
	sts NVM_CMD, r16          ; Load prepared command into NVM Command register.
	lpm r16, Z                ; Perform an LPM to read out byte
	sts NVM_CMD, r20          ; Restore NVM command register
#endif

	ret
     e46:	08 95       	ret

00000e48 <usart_enable_module_clock>:
     e48:	cf 93       	push	r28
     e4a:	df 93       	push	r29
     e4c:	ec 01       	movw	r28, r24
     e4e:	88 e0       	ldi	r24, 0x08	; 8
     e50:	c0 3a       	cpi	r28, 0xA0	; 160
     e52:	d8 07       	cpc	r29, r24
     e54:	29 f4       	brne	.+10     	; 0xe60 <usart_enable_module_clock+0x18>
     e56:	83 e0       	ldi	r24, 0x03	; 3
     e58:	90 e0       	ldi	r25, 0x00	; 0
     e5a:	60 e1       	ldi	r22, 0x10	; 16
     e5c:	9a da       	rcall	.-2764   	; 0x392 <sysclk_enable_module>
     e5e:	12 c0       	rjmp	.+36     	; 0xe84 <usart_enable_module_clock+0x3c>
     e60:	88 e0       	ldi	r24, 0x08	; 8
     e62:	c0 3b       	cpi	r28, 0xB0	; 176
     e64:	d8 07       	cpc	r29, r24
     e66:	29 f4       	brne	.+10     	; 0xe72 <usart_enable_module_clock+0x2a>
     e68:	83 e0       	ldi	r24, 0x03	; 3
     e6a:	90 e0       	ldi	r25, 0x00	; 0
     e6c:	60 e2       	ldi	r22, 0x20	; 32
     e6e:	91 da       	rcall	.-2782   	; 0x392 <sysclk_enable_module>
     e70:	11 c0       	rjmp	.+34     	; 0xe94 <usart_enable_module_clock+0x4c>
     e72:	89 e0       	ldi	r24, 0x09	; 9
     e74:	c0 3a       	cpi	r28, 0xA0	; 160
     e76:	d8 07       	cpc	r29, r24
     e78:	29 f4       	brne	.+10     	; 0xe84 <usart_enable_module_clock+0x3c>
     e7a:	84 e0       	ldi	r24, 0x04	; 4
     e7c:	90 e0       	ldi	r25, 0x00	; 0
     e7e:	60 e1       	ldi	r22, 0x10	; 16
     e80:	88 da       	rcall	.-2800   	; 0x392 <sysclk_enable_module>
     e82:	0f c0       	rjmp	.+30     	; 0xea2 <usart_enable_module_clock+0x5a>
     e84:	89 e0       	ldi	r24, 0x09	; 9
     e86:	c0 3b       	cpi	r28, 0xB0	; 176
     e88:	d8 07       	cpc	r29, r24
     e8a:	21 f4       	brne	.+8      	; 0xe94 <usart_enable_module_clock+0x4c>
     e8c:	84 e0       	ldi	r24, 0x04	; 4
     e8e:	90 e0       	ldi	r25, 0x00	; 0
     e90:	60 e2       	ldi	r22, 0x20	; 32
     e92:	0e c0       	rjmp	.+28     	; 0xeb0 <usart_enable_module_clock+0x68>
     e94:	8a e0       	ldi	r24, 0x0A	; 10
     e96:	c0 3a       	cpi	r28, 0xA0	; 160
     e98:	d8 07       	cpc	r29, r24
     e9a:	19 f4       	brne	.+6      	; 0xea2 <usart_enable_module_clock+0x5a>
     e9c:	85 e0       	ldi	r24, 0x05	; 5
     e9e:	90 e0       	ldi	r25, 0x00	; 0
     ea0:	06 c0       	rjmp	.+12     	; 0xeae <usart_enable_module_clock+0x66>
     ea2:	8b e0       	ldi	r24, 0x0B	; 11
     ea4:	c0 3a       	cpi	r28, 0xA0	; 160
     ea6:	d8 07       	cpc	r29, r24
     ea8:	21 f4       	brne	.+8      	; 0xeb2 <usart_enable_module_clock+0x6a>
     eaa:	86 e0       	ldi	r24, 0x06	; 6
     eac:	90 e0       	ldi	r25, 0x00	; 0
     eae:	60 e1       	ldi	r22, 0x10	; 16
     eb0:	70 da       	rcall	.-2848   	; 0x392 <sysclk_enable_module>
     eb2:	df 91       	pop	r29
     eb4:	cf 91       	pop	r28
     eb6:	08 95       	ret

00000eb8 <usart_spi_set_baudrate>:
     eb8:	cf 92       	push	r12
     eba:	df 92       	push	r13
     ebc:	ef 92       	push	r14
     ebe:	ff 92       	push	r15
     ec0:	0f 93       	push	r16
     ec2:	1f 93       	push	r17
     ec4:	cf 93       	push	r28
     ec6:	df 93       	push	r29
     ec8:	ec 01       	movw	r28, r24
     eca:	6a 01       	movw	r12, r20
     ecc:	7b 01       	movw	r14, r22
     ece:	c9 01       	movw	r24, r18
     ed0:	b8 01       	movw	r22, r16
     ed2:	66 0f       	add	r22, r22
     ed4:	77 1f       	adc	r23, r23
     ed6:	88 1f       	adc	r24, r24
     ed8:	99 1f       	adc	r25, r25
     eda:	cc 0c       	add	r12, r12
     edc:	dd 1c       	adc	r13, r13
     ede:	ee 1c       	adc	r14, r14
     ee0:	ff 1c       	adc	r15, r15
     ee2:	a7 01       	movw	r20, r14
     ee4:	96 01       	movw	r18, r12
     ee6:	90 d1       	rcall	.+800    	; 0x1208 <__udivmodsi4>
     ee8:	2f 5f       	subi	r18, 0xFF	; 255
     eea:	3f 4f       	sbci	r19, 0xFF	; 255
     eec:	4f 4f       	sbci	r20, 0xFF	; 255
     eee:	5f 4f       	sbci	r21, 0xFF	; 255
     ef0:	56 95       	lsr	r21
     ef2:	47 95       	ror	r20
     ef4:	37 95       	ror	r19
     ef6:	27 95       	ror	r18
     ef8:	21 50       	subi	r18, 0x01	; 1
     efa:	30 40       	sbci	r19, 0x00	; 0
     efc:	83 2f       	mov	r24, r19
     efe:	8f 70       	andi	r24, 0x0F	; 15
     f00:	8f 83       	std	Y+7, r24	; 0x07
     f02:	2e 83       	std	Y+6, r18	; 0x06
     f04:	df 91       	pop	r29
     f06:	cf 91       	pop	r28
     f08:	1f 91       	pop	r17
     f0a:	0f 91       	pop	r16
     f0c:	ff 90       	pop	r15
     f0e:	ef 90       	pop	r14
     f10:	df 90       	pop	r13
     f12:	cf 90       	pop	r12
     f14:	08 95       	ret

00000f16 <usart_init_spi>:
     f16:	0f 93       	push	r16
     f18:	1f 93       	push	r17
     f1a:	cf 93       	push	r28
     f1c:	df 93       	push	r29
     f1e:	ec 01       	movw	r28, r24
     f20:	8b 01       	movw	r16, r22
     f22:	92 df       	rcall	.-220    	; 0xe48 <usart_enable_module_clock>
     f24:	8d 81       	ldd	r24, Y+5	; 0x05
     f26:	80 6c       	ori	r24, 0xC0	; 192
     f28:	8d 83       	std	Y+5, r24	; 0x05
     f2a:	f8 01       	movw	r30, r16
     f2c:	84 81       	ldd	r24, Z+4	; 0x04
     f2e:	81 30       	cpi	r24, 0x01	; 1
     f30:	11 f0       	breq	.+4      	; 0xf36 <usart_init_spi+0x20>
     f32:	83 30       	cpi	r24, 0x03	; 3
     f34:	19 f4       	brne	.+6      	; 0xf3c <usart_init_spi+0x26>
     f36:	8d 81       	ldd	r24, Y+5	; 0x05
     f38:	82 60       	ori	r24, 0x02	; 2
     f3a:	02 c0       	rjmp	.+4      	; 0xf40 <usart_init_spi+0x2a>
     f3c:	8d 81       	ldd	r24, Y+5	; 0x05
     f3e:	8d 7f       	andi	r24, 0xFD	; 253
     f40:	8d 83       	std	Y+5, r24	; 0x05
     f42:	f8 01       	movw	r30, r16
     f44:	84 81       	ldd	r24, Z+4	; 0x04
     f46:	82 50       	subi	r24, 0x02	; 2
     f48:	82 30       	cpi	r24, 0x02	; 2
     f4a:	d0 f5       	brcc	.+116    	; 0xfc0 <usart_init_spi+0xaa>
     f4c:	f8 e0       	ldi	r31, 0x08	; 8
     f4e:	c0 3a       	cpi	r28, 0xA0	; 160
     f50:	df 07       	cpc	r29, r31
     f52:	39 f4       	brne	.+14     	; 0xf62 <usart_init_spi+0x4c>
     f54:	80 e4       	ldi	r24, 0x40	; 64
     f56:	96 e0       	ldi	r25, 0x06	; 6
     f58:	62 e0       	ldi	r22, 0x02	; 2
     f5a:	40 e4       	ldi	r20, 0x40	; 64
     f5c:	53 e0       	ldi	r21, 0x03	; 3
     f5e:	40 df       	rcall	.-384    	; 0xde0 <ioport_configure_port_pin>
     f60:	16 c0       	rjmp	.+44     	; 0xf8e <usart_init_spi+0x78>
     f62:	88 e0       	ldi	r24, 0x08	; 8
     f64:	c0 3b       	cpi	r28, 0xB0	; 176
     f66:	d8 07       	cpc	r29, r24
     f68:	39 f4       	brne	.+14     	; 0xf78 <usart_init_spi+0x62>
     f6a:	80 e4       	ldi	r24, 0x40	; 64
     f6c:	96 e0       	ldi	r25, 0x06	; 6
     f6e:	60 e2       	ldi	r22, 0x20	; 32
     f70:	40 e4       	ldi	r20, 0x40	; 64
     f72:	53 e0       	ldi	r21, 0x03	; 3
     f74:	35 df       	rcall	.-406    	; 0xde0 <ioport_configure_port_pin>
     f76:	13 c0       	rjmp	.+38     	; 0xf9e <usart_init_spi+0x88>
     f78:	e9 e0       	ldi	r30, 0x09	; 9
     f7a:	c0 3a       	cpi	r28, 0xA0	; 160
     f7c:	de 07       	cpc	r29, r30
     f7e:	39 f4       	brne	.+14     	; 0xf8e <usart_init_spi+0x78>
     f80:	80 e6       	ldi	r24, 0x60	; 96
     f82:	96 e0       	ldi	r25, 0x06	; 6
     f84:	62 e0       	ldi	r22, 0x02	; 2
     f86:	40 e4       	ldi	r20, 0x40	; 64
     f88:	53 e0       	ldi	r21, 0x03	; 3
     f8a:	2a df       	rcall	.-428    	; 0xde0 <ioport_configure_port_pin>
     f8c:	0f c0       	rjmp	.+30     	; 0xfac <usart_init_spi+0x96>
     f8e:	f9 e0       	ldi	r31, 0x09	; 9
     f90:	c0 3b       	cpi	r28, 0xB0	; 176
     f92:	df 07       	cpc	r29, r31
     f94:	21 f4       	brne	.+8      	; 0xf9e <usart_init_spi+0x88>
     f96:	80 e6       	ldi	r24, 0x60	; 96
     f98:	96 e0       	ldi	r25, 0x06	; 6
     f9a:	60 e2       	ldi	r22, 0x20	; 32
     f9c:	0e c0       	rjmp	.+28     	; 0xfba <usart_init_spi+0xa4>
     f9e:	8a e0       	ldi	r24, 0x0A	; 10
     fa0:	c0 3a       	cpi	r28, 0xA0	; 160
     fa2:	d8 07       	cpc	r29, r24
     fa4:	19 f4       	brne	.+6      	; 0xfac <usart_init_spi+0x96>
     fa6:	80 e8       	ldi	r24, 0x80	; 128
     fa8:	96 e0       	ldi	r25, 0x06	; 6
     faa:	06 c0       	rjmp	.+12     	; 0xfb8 <usart_init_spi+0xa2>
     fac:	eb e0       	ldi	r30, 0x0B	; 11
     fae:	c0 3a       	cpi	r28, 0xA0	; 160
     fb0:	de 07       	cpc	r29, r30
     fb2:	31 f4       	brne	.+12     	; 0xfc0 <usart_init_spi+0xaa>
     fb4:	80 ea       	ldi	r24, 0xA0	; 160
     fb6:	96 e0       	ldi	r25, 0x06	; 6
     fb8:	62 e0       	ldi	r22, 0x02	; 2
     fba:	40 e4       	ldi	r20, 0x40	; 64
     fbc:	53 e0       	ldi	r21, 0x03	; 3
     fbe:	10 df       	rcall	.-480    	; 0xde0 <ioport_configure_port_pin>
     fc0:	f8 01       	movw	r30, r16
     fc2:	40 81       	ld	r20, Z
     fc4:	51 81       	ldd	r21, Z+1	; 0x01
     fc6:	62 81       	ldd	r22, Z+2	; 0x02
     fc8:	73 81       	ldd	r23, Z+3	; 0x03
     fca:	ce 01       	movw	r24, r28
     fcc:	00 e8       	ldi	r16, 0x80	; 128
     fce:	14 e8       	ldi	r17, 0x84	; 132
     fd0:	2e e1       	ldi	r18, 0x1E	; 30
     fd2:	30 e0       	ldi	r19, 0x00	; 0
     fd4:	71 df       	rcall	.-286    	; 0xeb8 <usart_spi_set_baudrate>
     fd6:	8c 81       	ldd	r24, Y+4	; 0x04
     fd8:	88 60       	ori	r24, 0x08	; 8
     fda:	8c 83       	std	Y+4, r24	; 0x04
     fdc:	8c 81       	ldd	r24, Y+4	; 0x04
     fde:	80 61       	ori	r24, 0x10	; 16
     fe0:	8c 83       	std	Y+4, r24	; 0x04
     fe2:	df 91       	pop	r29
     fe4:	cf 91       	pop	r28
     fe6:	1f 91       	pop	r17
     fe8:	0f 91       	pop	r16
     fea:	08 95       	ret

00000fec <ioport_set_value>:
     fec:	e8 2f       	mov	r30, r24
     fee:	e6 95       	lsr	r30
     ff0:	e6 95       	lsr	r30
     ff2:	e6 95       	lsr	r30
     ff4:	f0 e0       	ldi	r31, 0x00	; 0
     ff6:	f0 96       	adiw	r30, 0x30	; 48
     ff8:	95 e0       	ldi	r25, 0x05	; 5
     ffa:	ee 0f       	add	r30, r30
     ffc:	ff 1f       	adc	r31, r31
     ffe:	9a 95       	dec	r25
    1000:	e1 f7       	brne	.-8      	; 0xffa <ioport_set_value+0xe>
    1002:	90 e0       	ldi	r25, 0x00	; 0
    1004:	66 23       	and	r22, r22
    1006:	59 f0       	breq	.+22     	; 0x101e <ioport_set_value+0x32>
    1008:	87 70       	andi	r24, 0x07	; 7
    100a:	90 70       	andi	r25, 0x00	; 0
    100c:	21 e0       	ldi	r18, 0x01	; 1
    100e:	30 e0       	ldi	r19, 0x00	; 0
    1010:	02 c0       	rjmp	.+4      	; 0x1016 <ioport_set_value+0x2a>
    1012:	22 0f       	add	r18, r18
    1014:	33 1f       	adc	r19, r19
    1016:	8a 95       	dec	r24
    1018:	e2 f7       	brpl	.-8      	; 0x1012 <ioport_set_value+0x26>
    101a:	25 83       	std	Z+5, r18	; 0x05
    101c:	08 95       	ret
    101e:	87 70       	andi	r24, 0x07	; 7
    1020:	90 70       	andi	r25, 0x00	; 0
    1022:	21 e0       	ldi	r18, 0x01	; 1
    1024:	30 e0       	ldi	r19, 0x00	; 0
    1026:	02 c0       	rjmp	.+4      	; 0x102c <ioport_set_value+0x40>
    1028:	22 0f       	add	r18, r18
    102a:	33 1f       	adc	r19, r19
    102c:	8a 95       	dec	r24
    102e:	e2 f7       	brpl	.-8      	; 0x1028 <ioport_set_value+0x3c>
    1030:	26 83       	std	Z+6, r18	; 0x06
    1032:	08 95       	ret

00001034 <ioport_pin_is_low>:
    1034:	e8 2f       	mov	r30, r24
    1036:	e6 95       	lsr	r30
    1038:	e6 95       	lsr	r30
    103a:	e6 95       	lsr	r30
    103c:	f0 e0       	ldi	r31, 0x00	; 0
    103e:	f0 96       	adiw	r30, 0x30	; 48
    1040:	25 e0       	ldi	r18, 0x05	; 5
    1042:	ee 0f       	add	r30, r30
    1044:	ff 1f       	adc	r31, r31
    1046:	2a 95       	dec	r18
    1048:	e1 f7       	brne	.-8      	; 0x1042 <ioport_pin_is_low+0xe>
    104a:	90 85       	ldd	r25, Z+8	; 0x08
    104c:	87 70       	andi	r24, 0x07	; 7
    104e:	21 e0       	ldi	r18, 0x01	; 1
    1050:	30 e0       	ldi	r19, 0x00	; 0
    1052:	01 c0       	rjmp	.+2      	; 0x1056 <ioport_pin_is_low+0x22>
    1054:	22 0f       	add	r18, r18
    1056:	8a 95       	dec	r24
    1058:	ea f7       	brpl	.-6      	; 0x1054 <ioport_pin_is_low+0x20>
    105a:	30 e0       	ldi	r19, 0x00	; 0
    105c:	89 2f       	mov	r24, r25
    105e:	90 e0       	ldi	r25, 0x00	; 0
    1060:	80 95       	com	r24
    1062:	90 95       	com	r25
    1064:	28 23       	and	r18, r24
    1066:	39 23       	and	r19, r25
    1068:	81 e0       	ldi	r24, 0x01	; 1
    106a:	21 15       	cp	r18, r1
    106c:	31 05       	cpc	r19, r1
    106e:	09 f4       	brne	.+2      	; 0x1072 <ioport_pin_is_low+0x3e>
    1070:	80 e0       	ldi	r24, 0x00	; 0
    1072:	08 95       	ret

00001074 <st7565r_write_command>:
    1074:	1f 93       	push	r17
    1076:	18 2f       	mov	r17, r24
    1078:	8b e2       	ldi	r24, 0x2B	; 43
    107a:	60 e0       	ldi	r22, 0x00	; 0
    107c:	b7 df       	rcall	.-146    	; 0xfec <ioport_set_value>
    107e:	88 e1       	ldi	r24, 0x18	; 24
    1080:	60 e0       	ldi	r22, 0x00	; 0
    1082:	b4 df       	rcall	.-152    	; 0xfec <ioport_set_value>
    1084:	80 91 a1 09 	lds	r24, 0x09A1
    1088:	85 ff       	sbrs	r24, 5
    108a:	fc cf       	rjmp	.-8      	; 0x1084 <st7565r_write_command+0x10>
    108c:	10 93 a0 09 	sts	0x09A0, r17
    1090:	80 91 a1 09 	lds	r24, 0x09A1
    1094:	86 ff       	sbrs	r24, 6
    1096:	fc cf       	rjmp	.-8      	; 0x1090 <st7565r_write_command+0x1c>
    1098:	80 e4       	ldi	r24, 0x40	; 64
    109a:	e0 ea       	ldi	r30, 0xA0	; 160
    109c:	f9 e0       	ldi	r31, 0x09	; 9
    109e:	81 83       	std	Z+1, r24	; 0x01
    10a0:	80 91 a0 09 	lds	r24, 0x09A0
    10a4:	8b e2       	ldi	r24, 0x2B	; 43
    10a6:	61 e0       	ldi	r22, 0x01	; 1
    10a8:	a1 df       	rcall	.-190    	; 0xfec <ioport_set_value>
    10aa:	1f 91       	pop	r17
    10ac:	08 95       	ret

000010ae <adc_handler>:
    10ae:	fc 01       	movw	r30, r24
    10b0:	44 0f       	add	r20, r20
    10b2:	45 2f       	mov	r20, r21
    10b4:	44 1f       	adc	r20, r20
    10b6:	55 0b       	sbc	r21, r21
    10b8:	51 95       	neg	r21
    10ba:	80 e2       	ldi	r24, 0x20	; 32
    10bc:	84 1b       	sub	r24, r20
    10be:	80 93 13 22 	sts	0x2213, r24
    10c2:	8f b7       	in	r24, 0x3f	; 63
    10c4:	f8 94       	cli
    10c6:	90 81       	ld	r25, Z
    10c8:	66 0f       	add	r22, r22
    10ca:	66 0f       	add	r22, r22
    10cc:	69 2b       	or	r22, r25
    10ce:	60 83       	st	Z, r22
    10d0:	8f bf       	out	0x3f, r24	; 63
    10d2:	08 95       	ret

000010d4 <clear_lcd>:
    10d4:	0f 93       	push	r16
    10d6:	1f 93       	push	r17
    10d8:	80 e0       	ldi	r24, 0x00	; 0
    10da:	60 e0       	ldi	r22, 0x00	; 0
    10dc:	40 e8       	ldi	r20, 0x80	; 128
    10de:	20 e2       	ldi	r18, 0x20	; 32
    10e0:	00 e0       	ldi	r16, 0x00	; 0
    10e2:	10 e0       	ldi	r17, 0x00	; 0
    10e4:	d3 da       	rcall	.-2650   	; 0x68c <gfx_mono_generic_draw_filled_rect>
    10e6:	1f 91       	pop	r17
    10e8:	0f 91       	pop	r16
    10ea:	08 95       	ret

000010ec <update_graph_display>:
    10ec:	0f 93       	push	r16
    10ee:	1f 93       	push	r17
    10f0:	80 91 14 22 	lds	r24, 0x2214
    10f4:	60 e0       	ldi	r22, 0x00	; 0
    10f6:	46 e0       	ldi	r20, 0x06	; 6
    10f8:	20 e2       	ldi	r18, 0x20	; 32
    10fa:	00 e0       	ldi	r16, 0x00	; 0
    10fc:	10 e0       	ldi	r17, 0x00	; 0
    10fe:	c6 da       	rcall	.-2676   	; 0x68c <gfx_mono_generic_draw_filled_rect>
    1100:	80 91 14 22 	lds	r24, 0x2214
    1104:	60 91 13 22 	lds	r22, 0x2213
    1108:	41 e0       	ldi	r20, 0x01	; 1
    110a:	f2 d9       	rcall	.-3100   	; 0x4f0 <gfx_mono_st7565r_draw_pixel>
    110c:	80 91 14 22 	lds	r24, 0x2214
    1110:	87 fd       	sbrc	r24, 7
    1112:	08 c0       	rjmp	.+16     	; 0x1124 <update_graph_display+0x38>
    1114:	80 91 14 22 	lds	r24, 0x2214
    1118:	8f 5f       	subi	r24, 0xFF	; 255
    111a:	80 93 14 22 	sts	0x2214, r24
    111e:	80 91 14 22 	lds	r24, 0x2214
    1122:	01 c0       	rjmp	.+2      	; 0x1126 <update_graph_display+0x3a>
    1124:	80 e0       	ldi	r24, 0x00	; 0
    1126:	80 93 14 22 	sts	0x2214, r24
    112a:	1f 91       	pop	r17
    112c:	0f 91       	pop	r16
    112e:	08 95       	ret

00001130 <set_mode>:
    1130:	85 e2       	ldi	r24, 0x25	; 37
    1132:	80 df       	rcall	.-256    	; 0x1034 <ioport_pin_is_low>
    1134:	88 23       	and	r24, r24
    1136:	29 f0       	breq	.+10     	; 0x1142 <set_mode+0x12>
    1138:	10 92 08 22 	sts	0x2208, r1
    113c:	cb df       	rcall	.-106    	; 0x10d4 <clear_lcd>
    113e:	10 92 14 22 	sts	0x2214, r1
    1142:	89 e2       	ldi	r24, 0x29	; 41
    1144:	77 df       	rcall	.-274    	; 0x1034 <ioport_pin_is_low>
    1146:	88 23       	and	r24, r24
    1148:	21 f0       	breq	.+8      	; 0x1152 <set_mode+0x22>
    114a:	81 e0       	ldi	r24, 0x01	; 1
    114c:	80 93 08 22 	sts	0x2208, r24
    1150:	c1 cf       	rjmp	.-126    	; 0x10d4 <clear_lcd>
    1152:	08 95       	ret

00001154 <main>:
    1154:	15 db       	rcall	.-2518   	; 0x780 <board_init>
    1156:	0d d9       	rcall	.-3558   	; 0x372 <sysclk_init>
    1158:	87 e0       	ldi	r24, 0x07	; 7
    115a:	e0 ea       	ldi	r30, 0xA0	; 160
    115c:	f0 e0       	ldi	r31, 0x00	; 0
    115e:	82 83       	std	Z+2, r24	; 0x02
    1160:	78 94       	sei
    1162:	ad d9       	rcall	.-3238   	; 0x4be <gfx_mono_st7565r_init>
    1164:	80 e1       	ldi	r24, 0x10	; 16
    1166:	e0 e8       	ldi	r30, 0x80	; 128
    1168:	f6 e0       	ldi	r31, 0x06	; 6
    116a:	85 83       	std	Z+5, r24	; 0x05
    116c:	81 e8       	ldi	r24, 0x81	; 129
    116e:	82 df       	rcall	.-252    	; 0x1074 <st7565r_write_command>
    1170:	81 e2       	ldi	r24, 0x21	; 33
    1172:	80 df       	rcall	.-256    	; 0x1074 <st7565r_write_command>
    1174:	80 e0       	ldi	r24, 0x00	; 0
    1176:	92 e0       	ldi	r25, 0x02	; 2
    1178:	69 e0       	ldi	r22, 0x09	; 9
    117a:	72 e2       	ldi	r23, 0x22	; 34
    117c:	85 dd       	rcall	.-1270   	; 0xc88 <adc_read_configuration>
    117e:	80 e0       	ldi	r24, 0x00	; 0
    1180:	92 e0       	ldi	r25, 0x02	; 2
    1182:	61 e0       	ldi	r22, 0x01	; 1
    1184:	40 e1       	ldi	r20, 0x10	; 16
    1186:	52 e2       	ldi	r21, 0x22	; 34
    1188:	dc dd       	rcall	.-1096   	; 0xd42 <adcch_read_configuration>
    118a:	80 91 0a 22 	lds	r24, 0x220A
    118e:	90 91 0b 22 	lds	r25, 0x220B
    1192:	9f 78       	andi	r25, 0x8F	; 143
    1194:	90 93 0b 22 	sts	0x220B, r25
    1198:	92 e0       	ldi	r25, 0x02	; 2
    119a:	90 93 0d 22 	sts	0x220D, r25
    119e:	81 7e       	andi	r24, 0xE1	; 225
    11a0:	80 93 0a 22 	sts	0x220A, r24
    11a4:	10 92 0c 22 	sts	0x220C, r1
    11a8:	80 e0       	ldi	r24, 0x00	; 0
    11aa:	92 e0       	ldi	r25, 0x02	; 2
    11ac:	69 e0       	ldi	r22, 0x09	; 9
    11ae:	72 e2       	ldi	r23, 0x22	; 34
    11b0:	2e dd       	rcall	.-1444   	; 0xc0e <adc_write_configuration>
    11b2:	80 e0       	ldi	r24, 0x00	; 0
    11b4:	92 e0       	ldi	r25, 0x02	; 2
    11b6:	67 e5       	ldi	r22, 0x57	; 87
    11b8:	78 e0       	ldi	r23, 0x08	; 8
    11ba:	fd dd       	rcall	.-1030   	; 0xdb6 <adc_set_callback>
    11bc:	81 e0       	ldi	r24, 0x01	; 1
    11be:	80 93 10 22 	sts	0x2210, r24
    11c2:	10 92 11 22 	sts	0x2211, r1
    11c6:	80 91 12 22 	lds	r24, 0x2212
    11ca:	80 7f       	andi	r24, 0xF0	; 240
    11cc:	81 60       	ori	r24, 0x01	; 1
    11ce:	80 93 12 22 	sts	0x2212, r24
    11d2:	80 e0       	ldi	r24, 0x00	; 0
    11d4:	92 e0       	ldi	r25, 0x02	; 2
    11d6:	61 e0       	ldi	r22, 0x01	; 1
    11d8:	40 e1       	ldi	r20, 0x10	; 16
    11da:	52 e2       	ldi	r21, 0x22	; 34
    11dc:	78 dd       	rcall	.-1296   	; 0xcce <adcch_write_configuration>
    11de:	80 e0       	ldi	r24, 0x00	; 0
    11e0:	92 e0       	ldi	r25, 0x02	; 2
    11e2:	fe dc       	rcall	.-1540   	; 0xbe0 <adc_enable>
    11e4:	9f b7       	in	r25, 0x3f	; 63
    11e6:	f8 94       	cli
    11e8:	80 91 00 02 	lds	r24, 0x0200
    11ec:	84 60       	ori	r24, 0x04	; 4
    11ee:	80 93 00 02 	sts	0x0200, r24
    11f2:	9f bf       	out	0x3f, r25	; 63
    11f4:	9d df       	rcall	.-198    	; 0x1130 <set_mode>
    11f6:	80 91 08 22 	lds	r24, 0x2208
    11fa:	88 23       	and	r24, r24
    11fc:	11 f4       	brne	.+4      	; 0x1202 <main+0xae>
    11fe:	76 df       	rcall	.-276    	; 0x10ec <update_graph_display>
    1200:	f9 cf       	rjmp	.-14     	; 0x11f4 <main+0xa0>
    1202:	80 91 08 22 	lds	r24, 0x2208
    1206:	f6 cf       	rjmp	.-20     	; 0x11f4 <main+0xa0>

00001208 <__udivmodsi4>:
    1208:	a1 e2       	ldi	r26, 0x21	; 33
    120a:	1a 2e       	mov	r1, r26
    120c:	aa 1b       	sub	r26, r26
    120e:	bb 1b       	sub	r27, r27
    1210:	fd 01       	movw	r30, r26
    1212:	0d c0       	rjmp	.+26     	; 0x122e <__udivmodsi4_ep>

00001214 <__udivmodsi4_loop>:
    1214:	aa 1f       	adc	r26, r26
    1216:	bb 1f       	adc	r27, r27
    1218:	ee 1f       	adc	r30, r30
    121a:	ff 1f       	adc	r31, r31
    121c:	a2 17       	cp	r26, r18
    121e:	b3 07       	cpc	r27, r19
    1220:	e4 07       	cpc	r30, r20
    1222:	f5 07       	cpc	r31, r21
    1224:	20 f0       	brcs	.+8      	; 0x122e <__udivmodsi4_ep>
    1226:	a2 1b       	sub	r26, r18
    1228:	b3 0b       	sbc	r27, r19
    122a:	e4 0b       	sbc	r30, r20
    122c:	f5 0b       	sbc	r31, r21

0000122e <__udivmodsi4_ep>:
    122e:	66 1f       	adc	r22, r22
    1230:	77 1f       	adc	r23, r23
    1232:	88 1f       	adc	r24, r24
    1234:	99 1f       	adc	r25, r25
    1236:	1a 94       	dec	r1
    1238:	69 f7       	brne	.-38     	; 0x1214 <__udivmodsi4_loop>
    123a:	60 95       	com	r22
    123c:	70 95       	com	r23
    123e:	80 95       	com	r24
    1240:	90 95       	com	r25
    1242:	9b 01       	movw	r18, r22
    1244:	ac 01       	movw	r20, r24
    1246:	bd 01       	movw	r22, r26
    1248:	cf 01       	movw	r24, r30
    124a:	08 95       	ret

0000124c <_exit>:
    124c:	f8 94       	cli

0000124e <__stop_program>:
    124e:	ff cf       	rjmp	.-2      	; 0x124e <__stop_program>
